

Microchip MPLAB XC8 Assembler V2.41 build 20230208172133 
                                                                                               Tue Aug 15 13:24:42 2023

Microchip MPLAB XC8 C Compiler v2.41 (Free license) build 20230208172133 Og1 
     1                           	processor	18F4620
     2                           	fnconf	rparam,??,?,0
     3                           	pagewidth 120
     4                           	opt	flic
     5                           	psect	idataCOMRAM,global,class=CODE,delta=1,noexec
     6                           	psect	idataBANK0,global,class=CODE,delta=1,noexec
     7                           	psect	smallconst,global,reloc=2,class=SMALLCONST,delta=1,noexec
     8                           	psect	nvCOMRAM,global,class=COMRAM,space=1,delta=1,lowdata,noexec
     9                           	psect	cinit,global,reloc=2,class=CODE,delta=1
    10                           	psect	bssCOMRAM,global,class=COMRAM,space=1,delta=1,lowdata,noexec
    11                           	psect	dataCOMRAM,global,class=COMRAM,space=1,delta=1,lowdata,noexec
    12                           	psect	bssBANK0,global,class=BANK0,space=1,delta=1,lowdata,noexec
    13                           	psect	dataBANK0,global,class=BANK0,space=1,delta=1,lowdata,noexec
    14                           	psect	cstackCOMRAM,global,class=COMRAM,space=1,delta=1,lowdata,noexec
    15                           	psect	text0,global,reloc=2,class=CODE,delta=1
    16                           	psect	text1,global,reloc=2,class=CODE,delta=1
    17                           	psect	text2,global,reloc=2,class=CODE,delta=1
    18                           	psect	text3,global,reloc=2,class=CODE,delta=1
    19                           	psect	text4,global,reloc=2,class=CODE,delta=1
    20                           	psect	text5,global,reloc=2,class=CODE,delta=1
    21                           	psect	text6,global,reloc=2,class=CODE,delta=1
    22                           	psect	text7,global,reloc=2,class=CODE,delta=1
    23                           	psect	text8,global,reloc=2,class=CODE,delta=1,group=3
    24                           	psect	text9,global,reloc=2,class=CODE,delta=1,group=1
    25                           	psect	text10,global,reloc=2,class=CODE,delta=1,group=1
    26                           	psect	text11,global,reloc=2,class=CODE,delta=1,group=1
    27                           	psect	text12,global,reloc=2,class=CODE,delta=1,group=1
    28                           	psect	text13,global,reloc=2,class=CODE,delta=1,group=3
    29                           	psect	text14,global,reloc=2,class=CODE,delta=1,group=3
    30                           	psect	text15,global,reloc=2,class=CODE,delta=1,group=3
    31                           	psect	text16,global,reloc=2,class=CODE,delta=1,group=3
    32                           	psect	text17,global,reloc=2,class=CODE,delta=1,group=2
    33                           	psect	text18,global,reloc=2,class=CODE,delta=1,group=2
    34                           	psect	text19,global,reloc=2,class=CODE,delta=1,group=3
    35                           	psect	text20,global,reloc=2,class=CODE,delta=1,group=3
    36                           	psect	text21,global,reloc=2,class=CODE,delta=1,group=3
    37                           	psect	text22,global,reloc=2,class=CODE,delta=1,group=3
    38                           	psect	text23,global,reloc=2,class=CODE,delta=1,group=2
    39                           	psect	text24,global,reloc=2,class=CODE,delta=1
    40                           	psect	text25,global,reloc=2,class=CODE,delta=1
    41                           	psect	text26,global,reloc=2,class=CODE,delta=1
    42                           	psect	text27,global,reloc=2,class=CODE,delta=1
    43                           	psect	text28,global,reloc=2,class=CODE,delta=1
    44                           	psect	text29,global,reloc=2,class=CODE,delta=1
    45                           	psect	text30,global,reloc=2,class=CODE,delta=1
    46                           	psect	text31,global,reloc=2,class=CODE,delta=1
    47                           	psect	text32,global,reloc=2,class=CODE,delta=1
    48                           	psect	text33,global,reloc=2,class=CODE,delta=1
    49                           	psect	intsave_regs,global,class=BIGRAM,space=1,delta=1,noexec
    50                           	psect	rparam,global,class=COMRAM,space=1,delta=1,noexec
    51                           	psect	config,global,abs,ovrld,class=CONFIG,space=4,delta=1,noexec
    52   000000                     
    53                           ; Generated 23/03/2023 GMT
    54                           ; 
    55                           ; Copyright © 2023, Microchip Technology Inc. and its subsidiaries ("Microchip")
    56                           ; All rights reserved.
    57                           ; 
    58                           ; This software is developed by Microchip Technology Inc. and its subsidiaries ("Microch
      +                          ip").
    59                           ; 
    60                           ; Redistribution and use in source and binary forms, with or without modification, are
    61                           ; permitted provided that the following conditions are met:
    62                           ; 
    63                           ;     1. Redistributions of source code must retain the above copyright notice, this lis
      +                          t of
    64                           ;        conditions and the following disclaimer.
    65                           ; 
    66                           ;     2. Redistributions in binary form must reproduce the above copyright notice, this 
      +                          list
    67                           ;        of conditions and the following disclaimer in the documentation and/or other
    68                           ;        materials provided with the distribution. Publication is not required when
    69                           ;        this file is used in an embedded application.
    70                           ; 
    71                           ;     3. Microchip's name may not be used to endorse or promote products derived from th
      +                          is
    72                           ;        software without specific prior written permission.
    73                           ; 
    74                           ; THIS SOFTWARE IS PROVIDED BY MICROCHIP "AS IS" AND ANY EXPRESS OR IMPLIED WARRANTIES,
    75                           ; INCLUDING, BUT NOT LIMITED TO, THE IMPLIED WARRANTIES OF MERCHANTABILITY AND FITNESS F
      +                          OR
    76                           ; PURPOSE ARE DISCLAIMED.  IN NO EVENT SHALL MICROCHIP BE LIABLE FOR ANY DIRECT, INDIREC
      +                          T,
    77                           ; INCIDENTAL, SPECIAL, EXEMPLARY, OR CONSEQUENTIAL DAMAGES (INCLUDING BUT NOT LIMITED TO
    78                           ; PROCUREMENT OF SUBSTITUTE GOODS OR SERVICES; LOSS OF USE, DATA OR PROFITS; OR BUSINESS
    79                           ; INTERRUPTION) HOWSOEVER CAUSED AND ON ANY THEORY OF LIABILITY, WHETHER IN CONTRACT, ST
      +                          RICT
    80                           ; LIABILITY, OR TORT (INCLUDING NEGLIGENCE OR OTHERWISE) ARISING IN ANY WAY OUT OF THE U
      +                          SE OF
    81                           ; THIS SOFTWARE, EVEN IF ADVISED OF THE POSSIBILITY OF SUCH DAMAGE.
    82                           ; 
    83                           ; 
    84                           ; Code-generator required, PIC18F4620 Definitions
    85                           ; 
    86                           ; SFR Addresses
    87   000000                     
    88                           	psect	idataCOMRAM
    89   0028C2                     __pidataCOMRAM:
    90                           	callstack 0
    91                           
    92                           ;initializer for _led_1
    93   0028C2  01                 	db	1
    94                           
    95                           ;initializer for _kp1
    96   0028C3  02                 	db	2
    97   0028C4  0A                 	db	10
    98   0028C5  12                 	db	18
    99   0028C6  1A                 	db	26
   100   0028C7  62                 	db	98
   101   0028C8  6A                 	db	106
   102   0028C9  72                 	db	114
   103   0028CA  7A                 	db	122
   104                           
   105                           ;initializer for _lcd_1
   106   0028CB  13                 	db	19
   107   0028CC  1B                 	db	27
   108   0028CD  23                 	db	35
   109   0028CE  2B                 	db	43
   110   0028CF  0B                 	db	11
   111   0028D0  03                 	db	3
   112                           
   113                           	psect	idataBANK0
   114   00288A                     __pidataBANK0:
   115                           	callstack 0
   116                           
   117                           ;initializer for _lat_registers
   118   00288A  89                 	db	137
   119   00288B  0F                 	db	15
   120   00288C  8A                 	db	138
   121   00288D  0F                 	db	15
   122   00288E  8B                 	db	139
   123   00288F  0F                 	db	15
   124   002890  8C                 	db	140
   125   002891  0F                 	db	15
   126   002892  8D                 	db	141
   127   002893  0F                 	db	15
   128                           
   129                           ;initializer for _port_registers
   130   002894  80                 	db	128
   131   002895  0F                 	db	15
   132   002896  81                 	db	129
   133   002897  0F                 	db	15
   134   002898  82                 	db	130
   135   002899  0F                 	db	15
   136   00289A  83                 	db	131
   137   00289B  0F                 	db	15
   138   00289C  84                 	db	132
   139   00289D  0F                 	db	15
   140                           
   141                           ;initializer for _tris_registers
   142   00289E  92                 	db	146
   143   00289F  0F                 	db	15
   144   0028A0  93                 	db	147
   145   0028A1  0F                 	db	15
   146   0028A2  94                 	db	148
   147   0028A3  0F                 	db	15
   148   0028A4  95                 	db	149
   149   0028A5  0F                 	db	15
   150   0028A6  96                 	db	150
   151   0028A7  0F                 	db	15
   152                           
   153                           	psect	smallconst
   154   001000                     __psmallconst:
   155                           	callstack 0
   156   001000  00                 	db	0
   157   001001                     _btn_values:
   158                           	callstack 0
   159   001001  37                 	db	55
   160   001002  38                 	db	56
   161   001003  39                 	db	57
   162   001004  2F                 	db	47
   163   001005  34                 	db	52
   164   001006  35                 	db	53
   165   001007  36                 	db	54
   166   001008  2A                 	db	42
   167   001009  31                 	db	49
   168   00100A  32                 	db	50
   169   00100B  33                 	db	51
   170   00100C  2D                 	db	45
   171   00100D  23                 	db	35
   172   00100E  30                 	db	48
   173   00100F  3D                 	db	61
   174   001010  2B                 	db	43
   175   001011                     __end_of_btn_values:
   176                           	callstack 0
   177   001011                     STR_4:
   178   001011  54                 	db	84	;'T'
   179   001012  6F                 	db	111	;'o'
   180   001013  20                 	db	32
   181   001014  4D                 	db	77	;'M'
   182   001015  75                 	db	117	;'u'
   183   001016  63                 	db	99	;'c'
   184   001017  68                 	db	104	;'h'
   185   001018  20                 	db	32
   186   001019  4F                 	db	79	;'O'
   187   00101A  70                 	db	112	;'p'
   188   00101B  65                 	db	101	;'e'
   189   00101C  72                 	db	114	;'r'
   190   00101D  61                 	db	97	;'a'
   191   00101E  74                 	db	116	;'t'
   192   00101F  69                 	db	105	;'i'
   193   001020  6F                 	db	111	;'o'
   194   001021  6E                 	db	110	;'n'
   195   001022  73                 	db	115	;'s'
   196   001023  00                 	db	0
   197   001024                     STR_5:
   198   001024  4F                 	db	79	;'O'
   199   001025  75                 	db	117	;'u'
   200   001026  74                 	db	116	;'t'
   201   001027  20                 	db	32
   202   001028  4F                 	db	79	;'O'
   203   001029  66                 	db	102	;'f'
   204   00102A  20                 	db	32
   205   00102B  53                 	db	83	;'S'
   206   00102C  70                 	db	112	;'p'
   207   00102D  61                 	db	97	;'a'
   208   00102E  63                 	db	99	;'c'
   209   00102F  65                 	db	101	;'e'
   210   001030  00                 	db	0
   211   001031                     STR_1:
   212   001031  25                 	db	37
   213   001032  69                 	db	105	;'i'
   214   001033  00                 	db	0
   215   001034  00                 	db	0	; dummy byte at the end
   216   000000                     
   217                           	psect	nvCOMRAM
   218   00007F                     __pnvCOMRAM:
   219                           	callstack 0
   220   00007F                     _ret:
   221                           	callstack 0
   222   00007F                     	ds	1
   223   000000                     _LATA	set	3977
   224   000000                     _PORTE	set	3972
   225   000000                     _PORTD	set	3971
   226   000000                     _PORTC	set	3970
   227   000000                     _PORTB	set	3969
   228   000000                     _PORTA	set	3968
   229   000000                     _TRISA	set	3986
   230   000000                     _TRISE	set	3990
   231   000000                     _TRISD	set	3989
   232   000000                     _TRISC	set	3988
   233   000000                     _TRISB	set	3987
   234   000000                     _LATE	set	3981
   235   000000                     _LATD	set	3980
   236   000000                     _LATC	set	3979
   237   000000                     _LATB	set	3978
   238                           
   239                           ; #config settings
   240                           
   241                           	psect	cinit
   242   002570                     __pcinit:
   243                           	callstack 0
   244   002570                     start_initialization:
   245                           	callstack 0
   246   002570                     __initialization:
   247                           	callstack 0
   248                           
   249                           ; Initialize objects allocated to BANK0 (30 bytes)
   250                           ; load TBLPTR registers with __pidataBANK0
   251   002570  0E8A               	movlw	low __pidataBANK0
   252   002572  6EF6               	movwf	tblptrl,c
   253   002574  0E28               	movlw	high __pidataBANK0
   254   002576  6EF7               	movwf	tblptrh,c
   255   002578  0E00               	movlw	low (__pidataBANK0 shr (0+16))
   256   00257A  6EF8               	movwf	tblptru,c
   257   00257C  EE00  F0D3         	lfsr	0,__pdataBANK0
   258   002580  EE10 F01E          	lfsr	1,30
   259   002584                     copy_data0:
   260   002584  0009               	tblrd		*+
   261   002586  CFF5 FFEE          	movff	tablat,postinc0
   262   00258A  50E5               	movf	postdec1,w,c
   263   00258C  50E1               	movf	fsr1l,w,c
   264   00258E  E1FA               	bnz	copy_data0
   265                           
   266                           ; Initialize objects allocated to COMRAM (15 bytes)
   267                           ; load TBLPTR registers with __pidataCOMRAM
   268   002590  0EC2               	movlw	low __pidataCOMRAM
   269   002592  6EF6               	movwf	tblptrl,c
   270   002594  0E28               	movlw	high __pidataCOMRAM
   271   002596  6EF7               	movwf	tblptrh,c
   272   002598  0E00               	movlw	low (__pidataCOMRAM shr (0+16))
   273   00259A  6EF8               	movwf	tblptru,c
   274   00259C  EE00  F070         	lfsr	0,__pdataCOMRAM
   275   0025A0  EE10 F00F          	lfsr	1,15
   276   0025A4                     copy_data1:
   277   0025A4  0009               	tblrd		*+
   278   0025A6  CFF5 FFEE          	movff	tablat,postinc0
   279   0025AA  50E5               	movf	postdec1,w,c
   280   0025AC  50E1               	movf	fsr1l,w,c
   281   0025AE  E1FA               	bnz	copy_data1
   282                           
   283                           ; Clear objects allocated to BANK0 (83 bytes)
   284   0025B0  EE00  F080         	lfsr	0,__pbssBANK0
   285   0025B4  0E53               	movlw	83
   286   0025B6                     clear_0:
   287   0025B6  6AEE               	clrf	postinc0,c
   288   0025B8  06E8               	decf	wreg,f,c
   289   0025BA  E1FD               	bnz	clear_0
   290                           
   291                           ; Clear objects allocated to COMRAM (22 bytes)
   292   0025BC  EE00  F05A         	lfsr	0,__pbssCOMRAM
   293   0025C0  0E16               	movlw	22
   294   0025C2                     clear_1:
   295   0025C2  6AEE               	clrf	postinc0,c
   296   0025C4  06E8               	decf	wreg,f,c
   297   0025C6  E1FD               	bnz	clear_1
   298   0025C8                     end_of_initialization:
   299                           	callstack 0
   300   0025C8                     __end_of__initialization:
   301                           	callstack 0
   302   0025C8  0E00               	movlw	low (__Lmediumconst shr (0+16))
   303   0025CA  6EF8               	movwf	tblptru,c
   304   0025CC  0100               	movlb	0
   305   0025CE  EF1B  F008         	goto	_main	;jump to C main() function
   306                           
   307                           	psect	bssCOMRAM
   308   00005A                     __pbssCOMRAM:
   309                           	callstack 0
   310   00005A                     _width:
   311                           	callstack 0
   312   00005A                     	ds	2
   313   00005C                     _prec:
   314                           	callstack 0
   315   00005C                     	ds	2
   316   00005E                     _num2_counter:
   317                           	callstack 0
   318   00005E                     	ds	2
   319   000060                     _num1_counter:
   320                           	callstack 0
   321   000060                     	ds	2
   322   000062                     _res:
   323                           	callstack 0
   324   000062                     	ds	2
   325   000064                     _flags:
   326                           	callstack 0
   327   000064                     	ds	1
   328   000065                     _operatoin:
   329                           	callstack 0
   330   000065                     	ds	1
   331   000066                     _l:
   332                           	callstack 0
   333   000066                     	ds	1
   334   000067                     led_toggle@F3064:
   335                           	callstack 0
   336   000067                     	ds	1
   337   000068                     led_turn_off@F3059:
   338                           	callstack 0
   339   000068                     	ds	1
   340   000069                     led_turn_on@F3054:
   341                           	callstack 0
   342   000069                     	ds	1
   343   00006A                     led_initialize@F3049:
   344                           	callstack 0
   345   00006A                     	ds	1
   346   00006B                     relay_toggle@F3060:
   347                           	callstack 0
   348   00006B                     	ds	1
   349   00006C                     relay_turn_off@F3055:
   350                           	callstack 0
   351   00006C                     	ds	1
   352   00006D                     relay_turn_on@F3050:
   353                           	callstack 0
   354   00006D                     	ds	1
   355   00006E                     relay_initialize@F3045:
   356                           	callstack 0
   357   00006E                     	ds	1
   358   00006F                     _keypad_value:
   359                           	callstack 0
   360   00006F                     	ds	1
   361                           
   362                           	psect	dataCOMRAM
   363   000070                     __pdataCOMRAM:
   364                           	callstack 0
   365   000070                     _led_1:
   366                           	callstack 0
   367   000070                     	ds	1
   368   000071                     _kp1:
   369                           	callstack 0
   370   000071                     	ds	8
   371   000079                     _lcd_1:
   372                           	callstack 0
   373   000079                     	ds	6
   374                           
   375                           	psect	bssBANK0
   376   000080                     __pbssBANK0:
   377                           	callstack 0
   378   000080                     _dbuf:
   379                           	callstack 0
   380   000080                     	ds	32
   381   0000A0                     _num2:
   382                           	callstack 0
   383   0000A0                     	ds	20
   384   0000B4                     _num1:
   385                           	callstack 0
   386   0000B4                     	ds	20
   387   0000C8                     _a:
   388                           	callstack 0
   389   0000C8                     	ds	11
   390                           
   391                           	psect	dataBANK0
   392   0000D3                     __pdataBANK0:
   393                           	callstack 0
   394   0000D3                     _lat_registers:
   395                           	callstack 0
   396   0000D3                     	ds	10
   397   0000DD                     _port_registers:
   398                           	callstack 0
   399   0000DD                     	ds	10
   400   0000E7                     _tris_registers:
   401                           	callstack 0
   402   0000E7                     	ds	10
   403                           
   404                           	psect	cstackCOMRAM
   405   000001                     __pcstackCOMRAM:
   406                           	callstack 0
   407   000001                     ?_isspace:
   408                           	callstack 0
   409   000001                     ?_isdigit:
   410                           	callstack 0
   411   000001                     ?___wmul:
   412                           	callstack 0
   413   000001                     ?___awdiv:
   414                           	callstack 0
   415   000001                     ?___awmod:
   416                           	callstack 0
   417   000001                     gpio_pin_direction_initialize@pin:
   418                           	callstack 0
   419   000001                     gpio_pin_read_logic@pin:
   420                           	callstack 0
   421   000001                     gpio_pin_write_logic@pin:
   422                           	callstack 0
   423   000001                     ___wmul@multiplier:
   424                           	callstack 0
   425   000001                     ___awdiv@dividend:
   426                           	callstack 0
   427   000001                     ___awmod@dividend:
   428                           	callstack 0
   429   000001                     isdigit@c:
   430                           	callstack 0
   431   000001                     isspace@c:
   432                           	callstack 0
   433   000001                     memset@dest:
   434                           	callstack 0
   435   000001                     fputc@c:
   436                           	callstack 0
   437                           
   438                           ; 2 bytes @ 0x0
   439   000001                     	ds	2
   440   000003                     ??_gpio_pin_direction_initialize:
   441   000003                     ??_isspace:
   442   000003                     ??_isdigit:
   443   000003                     gpio_pin_write_logic@log:
   444                           	callstack 0
   445   000003                     gpio_pin_read_logic@log:
   446                           	callstack 0
   447   000003                     ___wmul@multiplicand:
   448                           	callstack 0
   449   000003                     ___awdiv@divisor:
   450                           	callstack 0
   451   000003                     ___awmod@divisor:
   452                           	callstack 0
   453   000003                     memset@c:
   454                           	callstack 0
   455   000003                     fputc@fp:
   456                           	callstack 0
   457                           
   458                           ; 2 bytes @ 0x2
   459   000003                     	ds	1
   460   000004                     ??_gpio_pin_write_logic:
   461                           
   462                           ; 1 bytes @ 0x3
   463   000004                     	ds	1
   464   000005                     ??_gpio_pin_read_logic:
   465   000005                     ??_fputc:
   466   000005                     ___awdiv@counter:
   467                           	callstack 0
   468   000005                     ___awmod@counter:
   469                           	callstack 0
   470   000005                     _isspace$1333:
   471                           	callstack 0
   472   000005                     ___wmul@product:
   473                           	callstack 0
   474   000005                     memset@n:
   475                           	callstack 0
   476                           
   477                           ; 2 bytes @ 0x4
   478   000005                     	ds	1
   479   000006                     ___awdiv@sign:
   480                           	callstack 0
   481   000006                     ___awmod@sign:
   482                           	callstack 0
   483                           
   484                           ; 1 bytes @ 0x5
   485   000006                     	ds	1
   486   000007                     ??_memset:
   487   000007                     ?_atoi:
   488                           	callstack 0
   489   000007                     ?_abs:
   490                           	callstack 0
   491   000007                     ___awdiv@quotient:
   492                           	callstack 0
   493   000007                     atoi@s:
   494                           	callstack 0
   495   000007                     abs@a:
   496                           	callstack 0
   497                           
   498                           ; 2 bytes @ 0x6
   499   000007                     	ds	2
   500   000009                     ??_atoi:
   501   000009                     ??_abs:
   502   000009                     gpio_pin_direction_initialize@ret:
   503                           	callstack 0
   504   000009                     memset@k:
   505                           	callstack 0
   506                           
   507                           ; 2 bytes @ 0x8
   508   000009                     	ds	1
   509   00000A                     gpio_pin_read_logic@ret:
   510                           	callstack 0
   511   00000A                     gpio_pin_write_logic@ret:
   512                           	callstack 0
   513   00000A                     fputs@s:
   514                           	callstack 0
   515                           
   516                           ; 2 bytes @ 0x9
   517   00000A                     	ds	1
   518   00000B                     lcd_send_4bit@lcd_obj:
   519                           	callstack 0
   520   00000B                     lcd_4bit_send_enable@lcd_obj:
   521                           	callstack 0
   522   00000B                     keypad_get_value@keypad:
   523                           	callstack 0
   524   00000B                     gpio_pin_initialize@pin:
   525                           	callstack 0
   526   00000B                     memset@s:
   527                           	callstack 0
   528                           
   529                           ; 2 bytes @ 0xA
   530   00000B                     	ds	1
   531   00000C                     atoi@neg:
   532                           	callstack 0
   533   00000C                     fputs@fp:
   534                           	callstack 0
   535                           
   536                           ; 2 bytes @ 0xB
   537   00000C                     	ds	1
   538   00000D                     ??_gpio_pin_initialize:
   539   00000D                     lcd_send_4bit@data_command:
   540                           	callstack 0
   541   00000D                     lcd_4bit_send_enable@ret:
   542                           	callstack 0
   543   00000D                     keypad_get_value@value:
   544                           	callstack 0
   545                           
   546                           ; 2 bytes @ 0xC
   547   00000D                     	ds	1
   548   00000E                     ??_lcd_send_4bit:
   549   00000E                     gpio_pin_initialize@ret:
   550                           	callstack 0
   551   00000E                     fputs@c:
   552                           	callstack 0
   553   00000E                     atoi@n:
   554                           	callstack 0
   555                           
   556                           ; 2 bytes @ 0xD
   557   00000E                     	ds	1
   558   00000F                     ??_keypad_get_value:
   559   00000F                     keypad_initialize@keypad:
   560                           	callstack 0
   561   00000F                     fputs@i:
   562                           	callstack 0
   563                           
   564                           ; 2 bytes @ 0xE
   565   00000F                     	ds	1
   566   000010                     lcd_send_4bit@ret:
   567                           	callstack 0
   568                           
   569                           ; 1 bytes @ 0xF
   570   000010                     	ds	1
   571   000011                     ??_keypad_initialize:
   572   000011                     keypad_get_value@ret:
   573                           	callstack 0
   574   000011                     lcd_send_4bit@i:
   575                           	callstack 0
   576   000011                     pad@fp:
   577                           	callstack 0
   578                           
   579                           ; 2 bytes @ 0x10
   580   000011                     	ds	1
   581   000012                     keypad_get_value@log:
   582                           	callstack 0
   583                           
   584                           ; 1 bytes @ 0x11
   585   000012                     	ds	1
   586   000013                     keypad_initialize@ret:
   587                           	callstack 0
   588   000013                     keypad_get_value@counter:
   589                           	callstack 0
   590   000013                     lcd_4bit_send_command@lcd_obj:
   591                           	callstack 0
   592   000013                     lcd_4bit_send_char@lcd_obj:
   593                           	callstack 0
   594   000013                     pad@buf:
   595                           	callstack 0
   596                           
   597                           ; 2 bytes @ 0x12
   598   000013                     	ds	1
   599   000014                     keypad_initialize@i:
   600                           	callstack 0
   601   000014                     keypad_get_value@row_counter:
   602                           	callstack 0
   603                           
   604                           ; 1 bytes @ 0x13
   605   000014                     	ds	1
   606   000015                     lcd_4bit_send_command@command:
   607                           	callstack 0
   608   000015                     lcd_4bit_send_char@chr:
   609                           	callstack 0
   610   000015                     keypad_initialize@i_479:
   611                           	callstack 0
   612   000015                     keypad_get_value@coulmn_counter:
   613                           	callstack 0
   614   000015                     pad@p:
   615                           	callstack 0
   616                           
   617                           ; 2 bytes @ 0x14
   618   000015                     	ds	1
   619   000016                     lcd_4bit_send_command@ret:
   620                           	callstack 0
   621   000016                     lcd_4bit_send_char@ret:
   622                           	callstack 0
   623                           
   624                           ; 1 bytes @ 0x15
   625   000016                     	ds	1
   626   000017                     ??_pad:
   627   000017                     lcd_4bit_initialize@lcd_obj:
   628                           	callstack 0
   629   000017                     lcd_4bit_send_string@lcd_obj:
   630                           	callstack 0
   631   000017                     lcd_4bit_set_cursor@lcd_obj:
   632                           	callstack 0
   633                           
   634                           ; 2 bytes @ 0x16
   635   000017                     	ds	1
   636   000018                     pad@i:
   637                           	callstack 0
   638                           
   639                           ; 2 bytes @ 0x17
   640   000018                     	ds	1
   641   000019                     ??_lcd_4bit_initialize:
   642   000019                     lcd_4bit_set_cursor@row:
   643                           	callstack 0
   644   000019                     lcd_4bit_send_string@string:
   645                           	callstack 0
   646                           
   647                           ; 2 bytes @ 0x18
   648   000019                     	ds	1
   649   00001A                     lcd_4bit_set_cursor@column:
   650                           	callstack 0
   651   00001A                     lcd_4bit_initialize@i:
   652                           	callstack 0
   653   00001A                     pad@w:
   654                           	callstack 0
   655                           
   656                           ; 2 bytes @ 0x19
   657   00001A                     	ds	1
   658   00001B                     ??_lcd_4bit_set_cursor:
   659   00001B                     lcd_4bit_send_string@ret:
   660                           	callstack 0
   661                           
   662                           ; 1 bytes @ 0x1A
   663   00001B                     	ds	1
   664   00001C                     lcd_4bit_initialize@ret:
   665                           	callstack 0
   666   00001C                     dtoa@fp:
   667                           	callstack 0
   668                           
   669                           ; 2 bytes @ 0x1B
   670   00001C                     	ds	1
   671   00001D                     lcd_4bit_set_cursor@ret:
   672                           	callstack 0
   673                           
   674                           ; 1 bytes @ 0x1C
   675   00001D                     	ds	1
   676   00001E                     lcd_4bit_send_string_pos@lcd_obj:
   677                           	callstack 0
   678   00001E                     dtoa@d:
   679                           	callstack 0
   680                           
   681                           ; 2 bytes @ 0x1D
   682   00001E                     	ds	2
   683   000020                     lcd_4bit_send_string_pos@row:
   684                           	callstack 0
   685   000020                     _dtoa$1424:
   686                           	callstack 0
   687                           
   688                           ; 2 bytes @ 0x1F
   689   000020                     	ds	1
   690   000021                     lcd_4bit_send_string_pos@column:
   691                           	callstack 0
   692                           
   693                           ; 1 bytes @ 0x20
   694   000021                     	ds	1
   695   000022                     lcd_4bit_send_string_pos@string:
   696                           	callstack 0
   697   000022                     dtoa@p:
   698                           	callstack 0
   699                           
   700                           ; 2 bytes @ 0x21
   701   000022                     	ds	2
   702   000024                     lcd_4bit_send_string_pos@ret:
   703                           	callstack 0
   704   000024                     dtoa@w:
   705                           	callstack 0
   706                           
   707                           ; 2 bytes @ 0x23
   708   000024                     	ds	2
   709   000026                     dtoa@i:
   710                           	callstack 0
   711                           
   712                           ; 2 bytes @ 0x25
   713   000026                     	ds	2
   714   000028                     dtoa@s:
   715                           	callstack 0
   716                           
   717                           ; 1 bytes @ 0x27
   718   000028                     	ds	1
   719   000029                     vfpfcnvrt@fp:
   720                           	callstack 0
   721                           
   722                           ; 2 bytes @ 0x28
   723   000029                     	ds	2
   724   00002B                     vfpfcnvrt@fmt:
   725                           	callstack 0
   726                           
   727                           ; 2 bytes @ 0x2A
   728   00002B                     	ds	2
   729   00002D                     vfpfcnvrt@ap:
   730                           	callstack 0
   731                           
   732                           ; 2 bytes @ 0x2C
   733   00002D                     	ds	2
   734   00002F                     ??_vfpfcnvrt:
   735                           
   736                           ; 1 bytes @ 0x2E
   737   00002F                     	ds	2
   738   000031                     vfpfcnvrt@convarg:
   739                           	callstack 0
   740                           
   741                           ; 4 bytes @ 0x30
   742   000031                     	ds	4
   743   000035                     vfpfcnvrt@cp:
   744                           	callstack 0
   745                           
   746                           ; 2 bytes @ 0x34
   747   000035                     	ds	2
   748   000037                     ?_vfprintf:
   749                           	callstack 0
   750   000037                     vfprintf@fp:
   751                           	callstack 0
   752                           
   753                           ; 2 bytes @ 0x36
   754   000037                     	ds	2
   755   000039                     vfprintf@fmt:
   756                           	callstack 0
   757                           
   758                           ; 2 bytes @ 0x38
   759   000039                     	ds	2
   760   00003B                     vfprintf@ap:
   761                           	callstack 0
   762                           
   763                           ; 2 bytes @ 0x3A
   764   00003B                     	ds	2
   765   00003D                     vfprintf@cfmt:
   766                           	callstack 0
   767                           
   768                           ; 2 bytes @ 0x3C
   769   00003D                     	ds	2
   770   00003F                     ?_sprintf:
   771                           	callstack 0
   772   00003F                     sprintf@s:
   773                           	callstack 0
   774                           
   775                           ; 2 bytes @ 0x3E
   776   00003F                     	ds	2
   777   000041                     sprintf@fmt:
   778                           	callstack 0
   779                           
   780                           ; 2 bytes @ 0x40
   781   000041                     	ds	4
   782   000045                     sprintf@ap:
   783                           	callstack 0
   784                           
   785                           ; 2 bytes @ 0x44
   786   000045                     	ds	2
   787   000047                     sprintf@f:
   788                           	callstack 0
   789                           
   790                           ; 12 bytes @ 0x46
   791   000047                     	ds	12
   792   000053                     convert_int_to_string@value:
   793                           	callstack 0
   794                           
   795                           ; 2 bytes @ 0x52
   796   000053                     	ds	2
   797   000055                     convert_int_to_string@str:
   798                           	callstack 0
   799                           
   800                           ; 2 bytes @ 0x54
   801   000055                     	ds	2
   802   000057                     convert_int_to_string@ret:
   803                           	callstack 0
   804                           
   805                           ; 1 bytes @ 0x56
   806   000057                     	ds	1
   807   000058                     ??_main:
   808                           
   809                           ; 1 bytes @ 0x57
   810   000058                     	ds	2
   811                           
   812 ;;
   813 ;;Main: autosize = 0, tempsize = 2, incstack = 0, save=0
   814 ;;
   815 ;; *************** function _main *****************
   816 ;; Defined at:
   817 ;;		line 22 in file "application.c"
   818 ;; Parameters:    Size  Location     Type
   819 ;;		None
   820 ;; Auto vars:     Size  Location     Type
   821 ;;		None
   822 ;; Return value:  Size  Location     Type
   823 ;;                  2  531[None  ] int 
   824 ;; Registers used:
   825 ;;		wreg, fsr0l, fsr0h, fsr1l, fsr1h, fsr2l, fsr2h, status,2, status,0, tblptrl, tblptrh, tblptru, prodl, prodh, cstack
   826 ;; Tracked objects:
   827 ;;		On entry : 0/0
   828 ;;		On exit  : 0/0
   829 ;;		Unchanged: 0/0
   830 ;; Data sizes:     COMRAM   BANK0   BANK1   BANK2   BANK3   BANK4   BANK5   BANK6   BANK7   BANK8   BANK9  BANK10  BANK1
      +1  BANK12  BANK13  BANK14  BANK15
   831 ;;      Params:         0       0       0       0       0       0       0       0       0       0       0       0       
      +0       0       0       0       0
   832 ;;      Locals:         0       0       0       0       0       0       0       0       0       0       0       0       
      +0       0       0       0       0
   833 ;;      Temps:          2       0       0       0       0       0       0       0       0       0       0       0       
      +0       0       0       0       0
   834 ;;      Totals:         2       0       0       0       0       0       0       0       0       0       0       0       
      +0       0       0       0       0
   835 ;;Total ram usage:        2 bytes
   836 ;; Hardware stack levels required when called: 9
   837 ;; This function calls:
   838 ;;		___awdiv
   839 ;;		___wmul
   840 ;;		_application_initialize
   841 ;;		_atoi
   842 ;;		_convert_int_to_string
   843 ;;		_keypad_get_value
   844 ;;		_lcd_4bit_send_char
   845 ;;		_lcd_4bit_send_command
   846 ;;		_lcd_4bit_send_string
   847 ;;		_lcd_4bit_send_string_pos
   848 ;;		_memset
   849 ;; This function is called by:
   850 ;;		Startup code after reset
   851 ;; This function uses a non-reentrant model
   852 ;;
   853                           
   854                           	psect	text0
   855   001036                     __ptext0:
   856                           	callstack 0
   857   001036                     _main:
   858                           	callstack 22
   859   001036                     
   860                           ;application.c: 23:     application_initialize();
   861   001036  EC69  F014         	call	_application_initialize	;wreg free
   862   00103A                     l4058:
   863                           
   864                           ;application.c: 25:     {;application.c: 26:         ret = keypad_get_value(&kp1,&keypad
      +                          _value);
   865   00103A  0E71               	movlw	low _kp1
   866   00103C  6E0B               	movwf	keypad_get_value@keypad^0,c
   867   00103E  0E00               	movlw	high _kp1
   868   001040  6E0C               	movwf	(keypad_get_value@keypad+1)^0,c
   869   001042  0E6F               	movlw	low _keypad_value
   870   001044  6E0D               	movwf	keypad_get_value@value^0,c
   871   001046  0E00               	movlw	high _keypad_value
   872   001048  6E0E               	movwf	(keypad_get_value@value+1)^0,c
   873   00104A  ECA7  F00E         	call	_keypad_get_value	;wreg free
   874   00104E  6E7F               	movwf	_ret^0,c
   875   001050                     
   876                           ;application.c: 27:         _delay((unsigned long)((200)*(4000000UL/4000.0)));
   877   001050  0E02               	movlw	2
   878   001052  6E59               	movwf	(??_main+1)^0,c
   879   001054  0E04               	movlw	4
   880   001056  6E58               	movwf	??_main^0,c
   881   001058  0EBA               	movlw	186
   882   00105A                     u3717:
   883   00105A  2EE8               	decfsz	wreg,f,c
   884   00105C  D7FE               	bra	u3717
   885   00105E  2E58               	decfsz	??_main^0,f,c
   886   001060  D7FC               	bra	u3717
   887   001062  2E59               	decfsz	(??_main+1)^0,f,c
   888   001064  D7FA               	bra	u3717
   889   001066  D000               	nop2	
   890   001068                     
   891                           ;application.c: 28:         if(keypad_value == '=')
   892   001068  0E3D               	movlw	61
   893   00106A  186F               	xorwf	_keypad_value^0,w,c
   894   00106C  A4D8               	btfss	status,2,c
   895   00106E  EF3B  F008         	goto	u3481
   896   001072  EF3D  F008         	goto	u3480
   897   001076                     u3481:
   898   001076  EFF0  F008         	goto	l4100
   899   00107A                     u3480:
   900   00107A                     
   901                           ;application.c: 29:         {;application.c: 30:             ret = lcd_4bit_send_char(&l
      +                          cd_1,keypad_value);
   902   00107A  0E79               	movlw	low _lcd_1
   903   00107C  6E13               	movwf	lcd_4bit_send_char@lcd_obj^0,c
   904   00107E  0E00               	movlw	high _lcd_1
   905   001080  6E14               	movwf	(lcd_4bit_send_char@lcd_obj+1)^0,c
   906   001082  C06F  F015         	movff	_keypad_value,lcd_4bit_send_char@chr
   907   001086  ECD1  F011         	call	_lcd_4bit_send_char	;wreg free
   908   00108A  6E7F               	movwf	_ret^0,c
   909                           
   910                           ;application.c: 31:             num1_counter = atoi(num1);
   911   00108C  0EB4               	movlw	low _num1
   912   00108E  6E07               	movwf	atoi@s^0,c
   913   001090  0E00               	movlw	high _num1
   914   001092  6E08               	movwf	(atoi@s+1)^0,c
   915   001094  ECA3  F00B         	call	_atoi	;wreg free
   916   001098  C007  F060         	movff	?_atoi,_num1_counter
   917   00109C  C008  F061         	movff	?_atoi+1,_num1_counter+1
   918                           
   919                           ;application.c: 32:             num2_counter = atoi(num2);
   920   0010A0  0EA0               	movlw	low _num2
   921   0010A2  6E07               	movwf	atoi@s^0,c
   922   0010A4  0E00               	movlw	high _num2
   923   0010A6  6E08               	movwf	(atoi@s+1)^0,c
   924   0010A8  ECA3  F00B         	call	_atoi	;wreg free
   925   0010AC  C007  F05E         	movff	?_atoi,_num2_counter
   926   0010B0  C008  F05F         	movff	?_atoi+1,_num2_counter+1
   927   0010B4                     
   928                           ;application.c: 33:             if(operatoin == '+' )
   929   0010B4  0E2B               	movlw	43
   930   0010B6  1865               	xorwf	_operatoin^0,w,c
   931   0010B8  A4D8               	btfss	status,2,c
   932   0010BA  EF61  F008         	goto	u3491
   933   0010BE  EF63  F008         	goto	u3490
   934   0010C2                     u3491:
   935   0010C2  EF6B  F008         	goto	l4070
   936   0010C6                     u3490:
   937   0010C6                     
   938                           ;application.c: 34:             {;application.c: 35:                 res = num1_counter 
      +                          + num2_counter;
   939   0010C6  505E               	movf	_num2_counter^0,w,c
   940   0010C8  2460               	addwf	_num1_counter^0,w,c
   941   0010CA  6E62               	movwf	_res^0,c
   942   0010CC  505F               	movf	(_num2_counter+1)^0,w,c
   943   0010CE  2061               	addwfc	(_num1_counter+1)^0,w,c
   944   0010D0  6E63               	movwf	(_res+1)^0,c
   945                           
   946                           ;application.c: 36:             }else if(operatoin == '-' )
   947   0010D2  EFAE  F008         	goto	l4082
   948   0010D6                     l4070:
   949   0010D6  0E2D               	movlw	45
   950   0010D8  1865               	xorwf	_operatoin^0,w,c
   951   0010DA  A4D8               	btfss	status,2,c
   952   0010DC  EF72  F008         	goto	u3501
   953   0010E0  EF74  F008         	goto	u3500
   954   0010E4                     u3501:
   955   0010E4  EF7C  F008         	goto	l4074
   956   0010E8                     u3500:
   957   0010E8                     
   958                           ;application.c: 37:             {;application.c: 38:                 res = num1_counter 
      +                          - num2_counter;
   959   0010E8  505E               	movf	_num2_counter^0,w,c
   960   0010EA  5C60               	subwf	_num1_counter^0,w,c
   961   0010EC  6E62               	movwf	_res^0,c
   962   0010EE  505F               	movf	(_num2_counter+1)^0,w,c
   963   0010F0  5861               	subwfb	(_num1_counter+1)^0,w,c
   964   0010F2  6E63               	movwf	(_res+1)^0,c
   965                           
   966                           ;application.c: 40:             }else if(operatoin == '*' )
   967   0010F4  EFAE  F008         	goto	l4082
   968   0010F8                     l4074:
   969   0010F8  0E2A               	movlw	42
   970   0010FA  1865               	xorwf	_operatoin^0,w,c
   971   0010FC  A4D8               	btfss	status,2,c
   972   0010FE  EF83  F008         	goto	u3511
   973   001102  EF85  F008         	goto	u3510
   974   001106                     u3511:
   975   001106  EF95  F008         	goto	l4078
   976   00110A                     u3510:
   977   00110A                     
   978                           ;application.c: 41:             {;application.c: 42:                 res = num1_counter 
      +                          * num2_counter;
   979   00110A  C060  F001         	movff	_num1_counter,___wmul@multiplier
   980   00110E  C061  F002         	movff	_num1_counter+1,___wmul@multiplier+1
   981   001112  C05E  F003         	movff	_num2_counter,___wmul@multiplicand
   982   001116  C05F  F004         	movff	_num2_counter+1,___wmul@multiplicand+1
   983   00111A  EC32  F014         	call	___wmul	;wreg free
   984   00111E  C001  F062         	movff	?___wmul,_res
   985   001122  C002  F063         	movff	?___wmul+1,_res+1
   986                           
   987                           ;application.c: 45:             }else if(operatoin == '/' )
   988   001126  EFAE  F008         	goto	l4082
   989   00112A                     l4078:
   990   00112A  0E2F               	movlw	47
   991   00112C  1865               	xorwf	_operatoin^0,w,c
   992   00112E  A4D8               	btfss	status,2,c
   993   001130  EF9C  F008         	goto	u3521
   994   001134  EF9E  F008         	goto	u3520
   995   001138                     u3521:
   996   001138  EFAE  F008         	goto	l537
   997   00113C                     u3520:
   998   00113C                     
   999                           ;application.c: 46:             {;application.c: 47:                 res = num1_counter 
      +                          / num2_counter;
  1000   00113C  C060  F001         	movff	_num1_counter,___awdiv@dividend
  1001   001140  C061  F002         	movff	_num1_counter+1,___awdiv@dividend+1
  1002   001144  C05E  F003         	movff	_num2_counter,___awdiv@divisor
  1003   001148  C05F  F004         	movff	_num2_counter+1,___awdiv@divisor+1
  1004   00114C  EC93  F00F         	call	___awdiv	;wreg free
  1005   001150  C001  F062         	movff	?___awdiv,_res
  1006   001154  C002  F063         	movff	?___awdiv+1,_res+1
  1007   001158  EFAE  F008         	goto	l4082
  1008   00115C                     l537:
  1009   00115C                     l4082:
  1010                           
  1011                           ;application.c: 50:             num1_counter=0;
  1012   00115C  0E00               	movlw	0
  1013   00115E  6E61               	movwf	(_num1_counter+1)^0,c
  1014   001160  0E00               	movlw	0
  1015   001162  6E60               	movwf	_num1_counter^0,c
  1016   001164                     
  1017                           ;application.c: 51:             num2_counter=0;
  1018   001164  0E00               	movlw	0
  1019   001166  6E5F               	movwf	(_num2_counter+1)^0,c
  1020   001168  0E00               	movlw	0
  1021   00116A  6E5E               	movwf	_num2_counter^0,c
  1022   00116C                     
  1023                           ;application.c: 52:             operatoin=0;
  1024   00116C  0E00               	movlw	0
  1025   00116E  6E65               	movwf	_operatoin^0,c
  1026   001170                     
  1027                           ;application.c: 53:             l=0;
  1028   001170  0E00               	movlw	0
  1029   001172  6E66               	movwf	_l^0,c
  1030   001174                     
  1031                           ;application.c: 54:             ret = convert_int_to_string(res,a);
  1032   001174  C062  F053         	movff	_res,convert_int_to_string@value
  1033   001178  C063  F054         	movff	_res+1,convert_int_to_string@value+1
  1034   00117C  0EC8               	movlw	low _a
  1035   00117E  6E55               	movwf	convert_int_to_string@str^0,c
  1036   001180  0E00               	movlw	high _a
  1037   001182  6E56               	movwf	(convert_int_to_string@str+1)^0,c
  1038   001184  EC16  F013         	call	_convert_int_to_string	;wreg free
  1039   001188  6E7F               	movwf	_ret^0,c
  1040   00118A                     
  1041                           ;application.c: 55:             ret = lcd_4bit_send_string(&lcd_1,a);
  1042   00118A  0E79               	movlw	low _lcd_1
  1043   00118C  6E17               	movwf	lcd_4bit_send_string@lcd_obj^0,c
  1044   00118E  0E00               	movlw	high _lcd_1
  1045   001190  6E18               	movwf	(lcd_4bit_send_string@lcd_obj+1)^0,c
  1046   001192  0EC8               	movlw	low _a
  1047   001194  6E19               	movwf	lcd_4bit_send_string@string^0,c
  1048   001196  0E00               	movlw	high _a
  1049   001198  6E1A               	movwf	(lcd_4bit_send_string@string+1)^0,c
  1050   00119A  EC0A  F011         	call	_lcd_4bit_send_string	;wreg free
  1051   00119E  6E7F               	movwf	_ret^0,c
  1052   0011A0                     
  1053                           ;application.c: 56:             memset(num1,'\0',10);
  1054   0011A0  0EB4               	movlw	low _num1
  1055   0011A2  6E01               	movwf	memset@dest^0,c
  1056   0011A4  0E00               	movlw	high _num1
  1057   0011A6  6E02               	movwf	(memset@dest+1)^0,c
  1058   0011A8  0E00               	movlw	0
  1059   0011AA  6E04               	movwf	(memset@c+1)^0,c
  1060   0011AC  0E00               	movlw	0
  1061   0011AE  6E03               	movwf	memset@c^0,c
  1062   0011B0  0E00               	movlw	0
  1063   0011B2  6E06               	movwf	(memset@n+1)^0,c
  1064   0011B4  0E0A               	movlw	10
  1065   0011B6  6E05               	movwf	memset@n^0,c
  1066   0011B8  ECE8  F00A         	call	_memset	;wreg free
  1067   0011BC                     
  1068                           ;application.c: 57:             memset(num2,'\0',10);
  1069   0011BC  0EA0               	movlw	low _num2
  1070   0011BE  6E01               	movwf	memset@dest^0,c
  1071   0011C0  0E00               	movlw	high _num2
  1072   0011C2  6E02               	movwf	(memset@dest+1)^0,c
  1073   0011C4  0E00               	movlw	0
  1074   0011C6  6E04               	movwf	(memset@c+1)^0,c
  1075   0011C8  0E00               	movlw	0
  1076   0011CA  6E03               	movwf	memset@c^0,c
  1077   0011CC  0E00               	movlw	0
  1078   0011CE  6E06               	movwf	(memset@n+1)^0,c
  1079   0011D0  0E0A               	movlw	10
  1080   0011D2  6E05               	movwf	memset@n^0,c
  1081   0011D4  ECE8  F00A         	call	_memset	;wreg free
  1082   0011D8                     
  1083                           ;application.c: 58:             keypad_value=0;
  1084   0011D8  0E00               	movlw	0
  1085   0011DA  6E6F               	movwf	_keypad_value^0,c
  1086                           
  1087                           ;application.c: 59:         }
  1088   0011DC  EF1D  F008         	goto	l4058
  1089   0011E0                     l4100:
  1090   0011E0  0E23               	movlw	35
  1091   0011E2  186F               	xorwf	_keypad_value^0,w,c
  1092   0011E4  A4D8               	btfss	status,2,c
  1093   0011E6  EFF7  F008         	goto	u3531
  1094   0011EA  EFF9  F008         	goto	u3530
  1095   0011EE                     u3531:
  1096   0011EE  EF2E  F009         	goto	l4118
  1097   0011F2                     u3530:
  1098   0011F2                     
  1099                           ;application.c: 61:          {;application.c: 62:             ret = lcd_4bit_send_comman
      +                          d(&lcd_1,0x01);
  1100   0011F2  0E79               	movlw	low _lcd_1
  1101   0011F4  6E13               	movwf	lcd_4bit_send_command@lcd_obj^0,c
  1102   0011F6  0E00               	movlw	high _lcd_1
  1103   0011F8  6E14               	movwf	(lcd_4bit_send_command@lcd_obj+1)^0,c
  1104   0011FA  0E01               	movlw	1
  1105   0011FC  6E15               	movwf	lcd_4bit_send_command@command^0,c
  1106   0011FE  EC0C  F012         	call	_lcd_4bit_send_command	;wreg free
  1107   001202  6E7F               	movwf	_ret^0,c
  1108   001204                     
  1109                           ;application.c: 63:             keypad_value=0;
  1110   001204  0E00               	movlw	0
  1111   001206  6E6F               	movwf	_keypad_value^0,c
  1112   001208                     
  1113                           ;application.c: 64:             num1_counter=0;
  1114   001208  0E00               	movlw	0
  1115   00120A  6E61               	movwf	(_num1_counter+1)^0,c
  1116   00120C  0E00               	movlw	0
  1117   00120E  6E60               	movwf	_num1_counter^0,c
  1118   001210                     
  1119                           ;application.c: 65:             num2_counter=0;
  1120   001210  0E00               	movlw	0
  1121   001212  6E5F               	movwf	(_num2_counter+1)^0,c
  1122   001214  0E00               	movlw	0
  1123   001216  6E5E               	movwf	_num2_counter^0,c
  1124   001218                     
  1125                           ;application.c: 66:             l=0;
  1126   001218  0E00               	movlw	0
  1127   00121A  6E66               	movwf	_l^0,c
  1128   00121C                     
  1129                           ;application.c: 67:             operatoin=0;
  1130   00121C  0E00               	movlw	0
  1131   00121E  6E65               	movwf	_operatoin^0,c
  1132   001220                     
  1133                           ;application.c: 68:             memset(num1,'\0',10);
  1134   001220  0EB4               	movlw	low _num1
  1135   001222  6E01               	movwf	memset@dest^0,c
  1136   001224  0E00               	movlw	high _num1
  1137   001226  6E02               	movwf	(memset@dest+1)^0,c
  1138   001228  0E00               	movlw	0
  1139   00122A  6E04               	movwf	(memset@c+1)^0,c
  1140   00122C  0E00               	movlw	0
  1141   00122E  6E03               	movwf	memset@c^0,c
  1142   001230  0E00               	movlw	0
  1143   001232  6E06               	movwf	(memset@n+1)^0,c
  1144   001234  0E0A               	movlw	10
  1145   001236  6E05               	movwf	memset@n^0,c
  1146   001238  ECE8  F00A         	call	_memset	;wreg free
  1147   00123C                     
  1148                           ;application.c: 69:             memset(num2,'\0',10);
  1149   00123C  0EA0               	movlw	low _num2
  1150   00123E  6E01               	movwf	memset@dest^0,c
  1151   001240  0E00               	movlw	high _num2
  1152   001242  6E02               	movwf	(memset@dest+1)^0,c
  1153   001244  0E00               	movlw	0
  1154   001246  6E04               	movwf	(memset@c+1)^0,c
  1155   001248  0E00               	movlw	0
  1156   00124A  6E03               	movwf	memset@c^0,c
  1157   00124C  0E00               	movlw	0
  1158   00124E  6E06               	movwf	(memset@n+1)^0,c
  1159   001250  0E0A               	movlw	10
  1160   001252  6E05               	movwf	memset@n^0,c
  1161   001254  ECE8  F00A         	call	_memset	;wreg free
  1162                           
  1163                           ;application.c: 70:          }
  1164   001258  EF1D  F008         	goto	l4058
  1165   00125C                     l4118:
  1166   00125C  506F               	movf	_keypad_value^0,w,c
  1167   00125E  B4D8               	btfsc	status,2,c
  1168   001260  EF34  F009         	goto	u3541
  1169   001264  EF36  F009         	goto	u3540
  1170   001268                     u3541:
  1171   001268  EF1A  F00A         	goto	l541
  1172   00126C                     u3540:
  1173   00126C                     
  1174                           ;application.c: 72:         {;application.c: 73:             ret = lcd_4bit_send_char(&l
      +                          cd_1,keypad_value);
  1175   00126C  0E79               	movlw	low _lcd_1
  1176   00126E  6E13               	movwf	lcd_4bit_send_char@lcd_obj^0,c
  1177   001270  0E00               	movlw	high _lcd_1
  1178   001272  6E14               	movwf	(lcd_4bit_send_char@lcd_obj+1)^0,c
  1179   001274  C06F  F015         	movff	_keypad_value,lcd_4bit_send_char@chr
  1180   001278  ECD1  F011         	call	_lcd_4bit_send_char	;wreg free
  1181   00127C  6E7F               	movwf	_ret^0,c
  1182   00127E                     
  1183                           ;application.c: 74:             if((l==0)&&(keypad_value!='*')&&((keypad_value!='-')||(n
      +                          um1_counter==0))&&(keypad_value!='+')&&(keypad_value!='/'))
  1184   00127E  5066               	movf	_l^0,w,c
  1185   001280  A4D8               	btfss	status,2,c
  1186   001282  EF45  F009         	goto	u3551
  1187   001286  EF47  F009         	goto	u3550
  1188   00128A                     u3551:
  1189   00128A  EF80  F009         	goto	l4138
  1190   00128E                     u3550:
  1191   00128E  0E2A               	movlw	42
  1192   001290  186F               	xorwf	_keypad_value^0,w,c
  1193   001292  B4D8               	btfsc	status,2,c
  1194   001294  EF4E  F009         	goto	u3561
  1195   001298  EF50  F009         	goto	u3560
  1196   00129C                     u3561:
  1197   00129C  EF80  F009         	goto	l4138
  1198   0012A0                     u3560:
  1199   0012A0  0E2D               	movlw	45
  1200   0012A2  186F               	xorwf	_keypad_value^0,w,c
  1201   0012A4  A4D8               	btfss	status,2,c
  1202   0012A6  EF57  F009         	goto	u3571
  1203   0012AA  EF59  F009         	goto	u3570
  1204   0012AE                     u3571:
  1205   0012AE  EF62  F009         	goto	l4130
  1206   0012B2                     u3570:
  1207   0012B2  5060               	movf	_num1_counter^0,w,c
  1208   0012B4  1061               	iorwf	(_num1_counter+1)^0,w,c
  1209   0012B6  A4D8               	btfss	status,2,c
  1210   0012B8  EF60  F009         	goto	u3581
  1211   0012BC  EF62  F009         	goto	u3580
  1212   0012C0                     u3581:
  1213   0012C0  EF80  F009         	goto	l4138
  1214   0012C4                     u3580:
  1215   0012C4                     l4130:
  1216   0012C4  0E2B               	movlw	43
  1217   0012C6  186F               	xorwf	_keypad_value^0,w,c
  1218   0012C8  B4D8               	btfsc	status,2,c
  1219   0012CA  EF69  F009         	goto	u3591
  1220   0012CE  EF6B  F009         	goto	u3590
  1221   0012D2                     u3591:
  1222   0012D2  EF80  F009         	goto	l4138
  1223   0012D6                     u3590:
  1224   0012D6  0E2F               	movlw	47
  1225   0012D8  186F               	xorwf	_keypad_value^0,w,c
  1226   0012DA  B4D8               	btfsc	status,2,c
  1227   0012DC  EF72  F009         	goto	u3601
  1228   0012E0  EF74  F009         	goto	u3600
  1229   0012E4                     u3601:
  1230   0012E4  EF80  F009         	goto	l4138
  1231   0012E8                     u3600:
  1232   0012E8                     
  1233                           ;application.c: 75:             {;application.c: 76:                 num1[num1_counter]=
      +                          keypad_value;
  1234   0012E8  0EB4               	movlw	low _num1
  1235   0012EA  2460               	addwf	_num1_counter^0,w,c
  1236   0012EC  6ED9               	movwf	fsr2l,c
  1237   0012EE  0E00               	movlw	high _num1
  1238   0012F0  2061               	addwfc	(_num1_counter+1)^0,w,c
  1239   0012F2  6EDA               	movwf	fsr2h,c
  1240   0012F4  C06F  FFDF         	movff	_keypad_value,indf2
  1241   0012F8                     
  1242                           ;application.c: 77:                 num1_counter++;;
  1243   0012F8  4A60               	infsnz	_num1_counter^0,f,c
  1244   0012FA  2A61               	incf	(_num1_counter+1)^0,f,c
  1245                           
  1246                           ;application.c: 78:             }
  1247   0012FC  EFEA  F009         	goto	l4166
  1248   001300                     l4138:
  1249   001300  0466               	decf	_l^0,w,c
  1250   001302  A4D8               	btfss	status,2,c
  1251   001304  EF86  F009         	goto	u3611
  1252   001308  EF88  F009         	goto	u3610
  1253   00130C                     u3611:
  1254   00130C  EFC1  F009         	goto	l4154
  1255   001310                     u3610:
  1256   001310  0E2A               	movlw	42
  1257   001312  186F               	xorwf	_keypad_value^0,w,c
  1258   001314  B4D8               	btfsc	status,2,c
  1259   001316  EF8F  F009         	goto	u3621
  1260   00131A  EF91  F009         	goto	u3620
  1261   00131E                     u3621:
  1262   00131E  EFC1  F009         	goto	l4154
  1263   001322                     u3620:
  1264   001322  0E2D               	movlw	45
  1265   001324  186F               	xorwf	_keypad_value^0,w,c
  1266   001326  A4D8               	btfss	status,2,c
  1267   001328  EF98  F009         	goto	u3631
  1268   00132C  EF9A  F009         	goto	u3630
  1269   001330                     u3631:
  1270   001330  EFA3  F009         	goto	l4146
  1271   001334                     u3630:
  1272   001334  505E               	movf	_num2_counter^0,w,c
  1273   001336  105F               	iorwf	(_num2_counter+1)^0,w,c
  1274   001338  A4D8               	btfss	status,2,c
  1275   00133A  EFA1  F009         	goto	u3641
  1276   00133E  EFA3  F009         	goto	u3640
  1277   001342                     u3641:
  1278   001342  EFC1  F009         	goto	l4154
  1279   001346                     u3640:
  1280   001346                     l4146:
  1281   001346  0E2B               	movlw	43
  1282   001348  186F               	xorwf	_keypad_value^0,w,c
  1283   00134A  B4D8               	btfsc	status,2,c
  1284   00134C  EFAA  F009         	goto	u3651
  1285   001350  EFAC  F009         	goto	u3650
  1286   001354                     u3651:
  1287   001354  EFC1  F009         	goto	l4154
  1288   001358                     u3650:
  1289   001358  0E2F               	movlw	47
  1290   00135A  186F               	xorwf	_keypad_value^0,w,c
  1291   00135C  B4D8               	btfsc	status,2,c
  1292   00135E  EFB3  F009         	goto	u3661
  1293   001362  EFB5  F009         	goto	u3660
  1294   001366                     u3661:
  1295   001366  EFC1  F009         	goto	l4154
  1296   00136A                     u3660:
  1297   00136A                     
  1298                           ;application.c: 80:             {;application.c: 81:                num2[num2_counter] =
      +                           keypad_value;
  1299   00136A  0EA0               	movlw	low _num2
  1300   00136C  245E               	addwf	_num2_counter^0,w,c
  1301   00136E  6ED9               	movwf	fsr2l,c
  1302   001370  0E00               	movlw	high _num2
  1303   001372  205F               	addwfc	(_num2_counter+1)^0,w,c
  1304   001374  6EDA               	movwf	fsr2h,c
  1305   001376  C06F  FFDF         	movff	_keypad_value,indf2
  1306   00137A                     
  1307                           ;application.c: 82:                 num2_counter++;
  1308   00137A  4A5E               	infsnz	_num2_counter^0,f,c
  1309   00137C  2A5F               	incf	(_num2_counter+1)^0,f,c
  1310                           
  1311                           ;application.c: 83:             }
  1312   00137E  EFEA  F009         	goto	l4166
  1313   001382                     l4154:
  1314                           
  1315                           ;application.c: 85:             {;application.c: 86:                 if(operatoin == 0)
  1316   001382  5065               	movf	_operatoin^0,w,c
  1317   001384  A4D8               	btfss	status,2,c
  1318   001386  EFC7  F009         	goto	u3671
  1319   00138A  EFC9  F009         	goto	u3670
  1320   00138E                     u3671:
  1321   00138E  EFDB  F009         	goto	l4164
  1322   001392                     u3670:
  1323   001392                     
  1324                           ;application.c: 87:                 {;application.c: 88:                     operatoin =
      +                           keypad_value;
  1325   001392  C06F  F065         	movff	_keypad_value,_operatoin
  1326   001396                     
  1327                           ;application.c: 89:                     if(l==1)
  1328   001396  0466               	decf	_l^0,w,c
  1329   001398  A4D8               	btfss	status,2,c
  1330   00139A  EFD1  F009         	goto	u3681
  1331   00139E  EFD3  F009         	goto	u3680
  1332   0013A2                     u3681:
  1333   0013A2  EFD7  F009         	goto	l4162
  1334   0013A6                     u3680:
  1335   0013A6                     
  1336                           ;application.c: 90:                     {;application.c: 91:                         l=0
      +                          ;
  1337   0013A6  0E00               	movlw	0
  1338   0013A8  6E66               	movwf	_l^0,c
  1339                           
  1340                           ;application.c: 92:                     }
  1341   0013AA  EFEA  F009         	goto	l4166
  1342   0013AE                     l4162:
  1343                           
  1344                           ;application.c: 94:                     {;application.c: 95:                         l=1
      +                          ;
  1345   0013AE  0E01               	movlw	1
  1346   0013B0  6E66               	movwf	_l^0,c
  1347   0013B2  EFEA  F009         	goto	l4166
  1348   0013B6                     l4164:
  1349                           
  1350                           ;application.c: 99:                 {;application.c: 100:                     ret = lcd_
      +                          4bit_send_string_pos(&lcd_1,1,1,"To Much Operations");
  1351   0013B6  0E79               	movlw	low _lcd_1
  1352   0013B8  6E1E               	movwf	lcd_4bit_send_string_pos@lcd_obj^0,c
  1353   0013BA  0E00               	movlw	high _lcd_1
  1354   0013BC  6E1F               	movwf	(lcd_4bit_send_string_pos@lcd_obj+1)^0,c
  1355   0013BE  0E01               	movlw	1
  1356   0013C0  6E20               	movwf	lcd_4bit_send_string_pos@row^0,c
  1357   0013C2  0E01               	movlw	1
  1358   0013C4  6E21               	movwf	lcd_4bit_send_string_pos@column^0,c
  1359   0013C6  0E11               	movlw	low STR_4
  1360   0013C8  6E22               	movwf	lcd_4bit_send_string_pos@string^0,c
  1361   0013CA  0E10               	movlw	high STR_4
  1362   0013CC  6E23               	movwf	(lcd_4bit_send_string_pos@string+1)^0,c
  1363   0013CE  ECE9  F012         	call	_lcd_4bit_send_string_pos	;wreg free
  1364   0013D2  6E7F               	movwf	_ret^0,c
  1365   0013D4                     l4166:
  1366                           
  1367                           ;application.c: 104:             keypad_value=0;
  1368   0013D4  0E00               	movlw	0
  1369   0013D6  6E6F               	movwf	_keypad_value^0,c
  1370   0013D8                     
  1371                           ;application.c: 105:             if((num2_counter==10)||(num1_counter==10))
  1372   0013D8  0E0A               	movlw	10
  1373   0013DA  185E               	xorwf	_num2_counter^0,w,c
  1374   0013DC  105F               	iorwf	(_num2_counter+1)^0,w,c
  1375   0013DE  B4D8               	btfsc	status,2,c
  1376   0013E0  EFF4  F009         	goto	u3691
  1377   0013E4  EFF6  F009         	goto	u3690
  1378   0013E8                     u3691:
  1379   0013E8  EF00  F00A         	goto	l4172
  1380   0013EC                     u3690:
  1381   0013EC  0E0A               	movlw	10
  1382   0013EE  1860               	xorwf	_num1_counter^0,w,c
  1383   0013F0  1061               	iorwf	(_num1_counter+1)^0,w,c
  1384   0013F2  A4D8               	btfss	status,2,c
  1385   0013F4  EFFE  F009         	goto	u3701
  1386   0013F8  EF00  F00A         	goto	u3700
  1387   0013FC                     u3701:
  1388   0013FC  EF1A  F00A         	goto	l541
  1389   001400                     u3700:
  1390   001400                     l4172:
  1391                           
  1392                           ;application.c: 106:             {;application.c: 107:                 ret = lcd_4bit_se
      +                          nd_command(&lcd_1,0x01);
  1393   001400  0E79               	movlw	low _lcd_1
  1394   001402  6E13               	movwf	lcd_4bit_send_command@lcd_obj^0,c
  1395   001404  0E00               	movlw	high _lcd_1
  1396   001406  6E14               	movwf	(lcd_4bit_send_command@lcd_obj+1)^0,c
  1397   001408  0E01               	movlw	1
  1398   00140A  6E15               	movwf	lcd_4bit_send_command@command^0,c
  1399   00140C  EC0C  F012         	call	_lcd_4bit_send_command	;wreg free
  1400   001410  6E7F               	movwf	_ret^0,c
  1401   001412                     
  1402                           ;application.c: 108:                 ret = lcd_4bit_send_string_pos(&lcd_1,1,1,"Out Of S
      +                          pace");
  1403   001412  0E79               	movlw	low _lcd_1
  1404   001414  6E1E               	movwf	lcd_4bit_send_string_pos@lcd_obj^0,c
  1405   001416  0E00               	movlw	high _lcd_1
  1406   001418  6E1F               	movwf	(lcd_4bit_send_string_pos@lcd_obj+1)^0,c
  1407   00141A  0E01               	movlw	1
  1408   00141C  6E20               	movwf	lcd_4bit_send_string_pos@row^0,c
  1409   00141E  0E01               	movlw	1
  1410   001420  6E21               	movwf	lcd_4bit_send_string_pos@column^0,c
  1411   001422  0E24               	movlw	low STR_5
  1412   001424  6E22               	movwf	lcd_4bit_send_string_pos@string^0,c
  1413   001426  0E10               	movlw	high STR_5
  1414   001428  6E23               	movwf	(lcd_4bit_send_string_pos@string+1)^0,c
  1415   00142A  ECE9  F012         	call	_lcd_4bit_send_string_pos	;wreg free
  1416   00142E  6E7F               	movwf	_ret^0,c
  1417   001430  EF1D  F008         	goto	l4058
  1418   001434                     l541:
  1419   001434  EF1D  F008         	goto	l4058
  1420   001438  EF00  F000         	goto	start
  1421   00143C                     __end_of_main:
  1422                           	callstack 0
  1423                           
  1424 ;; *************** function _lcd_4bit_send_string_pos *****************
  1425 ;; Defined at:
  1426 ;;		line 173 in file "ECU_layer/Char_lCD/ecu_chr_lcd.c"
  1427 ;; Parameters:    Size  Location     Type
  1428 ;;  lcd_obj         2   29[COMRAM] PTR const struct .
  1429 ;;		 -> lcd_1(6), 
  1430 ;;  row             1   31[COMRAM] unsigned char 
  1431 ;;  column          1   32[COMRAM] unsigned char 
  1432 ;;  string          2   33[COMRAM] PTR unsigned char 
  1433 ;;		 -> STR_5(13), STR_4(19), 
  1434 ;; Auto vars:     Size  Location     Type
  1435 ;;  ret             1   35[COMRAM] unsigned char 
  1436 ;; Return value:  Size  Location     Type
  1437 ;;                  1    wreg      unsigned char 
  1438 ;; Registers used:
  1439 ;;		wreg, fsr0l, fsr0h, fsr2l, fsr2h, status,2, status,0, tblptrl, tblptrh, tblptru, prodl, prodh, cstack
  1440 ;; Tracked objects:
  1441 ;;		On entry : 0/0
  1442 ;;		On exit  : 0/0
  1443 ;;		Unchanged: 0/0
  1444 ;; Data sizes:     COMRAM   BANK0   BANK1   BANK2   BANK3   BANK4   BANK5   BANK6   BANK7   BANK8   BANK9  BANK10  BANK1
      +1  BANK12  BANK13  BANK14  BANK15
  1445 ;;      Params:         6       0       0       0       0       0       0       0       0       0       0       0       
      +0       0       0       0       0
  1446 ;;      Locals:         1       0       0       0       0       0       0       0       0       0       0       0       
      +0       0       0       0       0
  1447 ;;      Temps:          0       0       0       0       0       0       0       0       0       0       0       0       
      +0       0       0       0       0
  1448 ;;      Totals:         7       0       0       0       0       0       0       0       0       0       0       0       
      +0       0       0       0       0
  1449 ;;Total ram usage:        7 bytes
  1450 ;; Hardware stack levels used: 1
  1451 ;; Hardware stack levels required when called: 4
  1452 ;; This function calls:
  1453 ;;		_lcd_4bit_send_string
  1454 ;;		_lcd_4bit_set_cursor
  1455 ;; This function is called by:
  1456 ;;		_main
  1457 ;; This function uses a non-reentrant model
  1458 ;;
  1459                           
  1460                           	psect	text1
  1461   0025D2                     __ptext1:
  1462                           	callstack 0
  1463   0025D2                     _lcd_4bit_send_string_pos:
  1464                           	callstack 26
  1465   0025D2                     
  1466                           ;ECU_layer/Char_lCD/ecu_chr_lcd.c: 176:     if((lcd_obj == ((void*)0))||(string==((void*
      +                          )0)))
  1467   0025D2  501E               	movf	lcd_4bit_send_string_pos@lcd_obj^0,w,c
  1468   0025D4  101F               	iorwf	(lcd_4bit_send_string_pos@lcd_obj+1)^0,w,c
  1469   0025D6  B4D8               	btfsc	status,2,c
  1470   0025D8  EFF0  F012         	goto	u2671
  1471   0025DC  EFF2  F012         	goto	u2670
  1472   0025E0                     u2671:
  1473   0025E0  EFFB  F012         	goto	l3392
  1474   0025E4                     u2670:
  1475   0025E4  5022               	movf	lcd_4bit_send_string_pos@string^0,w,c
  1476   0025E6  1023               	iorwf	(lcd_4bit_send_string_pos@string+1)^0,w,c
  1477   0025E8  A4D8               	btfss	status,2,c
  1478   0025EA  EFF9  F012         	goto	u2681
  1479   0025EE  EFFB  F012         	goto	u2680
  1480   0025F2                     u2681:
  1481   0025F2  EFFF  F012         	goto	l3394
  1482   0025F6                     u2680:
  1483   0025F6                     l3392:
  1484                           
  1485                           ;ECU_layer/Char_lCD/ecu_chr_lcd.c: 177:     {;ECU_layer/Char_lCD/ecu_chr_lcd.c: 178:    
      +                               ret = (Std_ReturnType)0x00;
  1486   0025F6  0E00               	movlw	0
  1487   0025F8  6E24               	movwf	lcd_4bit_send_string_pos@ret^0,c
  1488                           
  1489                           ;ECU_layer/Char_lCD/ecu_chr_lcd.c: 179:     }
  1490   0025FA  EF14  F013         	goto	l3398
  1491   0025FE                     l3394:
  1492   0025FE  C01E  F017         	movff	lcd_4bit_send_string_pos@lcd_obj,lcd_4bit_set_cursor@lcd_obj
  1493   002602  C01F  F018         	movff	lcd_4bit_send_string_pos@lcd_obj+1,lcd_4bit_set_cursor@lcd_obj+1
  1494   002606  C020  F019         	movff	lcd_4bit_send_string_pos@row,lcd_4bit_set_cursor@row
  1495   00260A  C021  F01A         	movff	lcd_4bit_send_string_pos@column,lcd_4bit_set_cursor@column
  1496   00260E  ECF5  F00F         	call	_lcd_4bit_set_cursor	;wreg free
  1497   002612                     
  1498                           ;ECU_layer/Char_lCD/ecu_chr_lcd.c: 183:         ret = lcd_4bit_send_string(lcd_obj,strin
      +                          g);
  1499   002612  C01E  F017         	movff	lcd_4bit_send_string_pos@lcd_obj,lcd_4bit_send_string@lcd_obj
  1500   002616  C01F  F018         	movff	lcd_4bit_send_string_pos@lcd_obj+1,lcd_4bit_send_string@lcd_obj+1
  1501   00261A  C022  F019         	movff	lcd_4bit_send_string_pos@string,lcd_4bit_send_string@string
  1502   00261E  C023  F01A         	movff	lcd_4bit_send_string_pos@string+1,lcd_4bit_send_string@string+1
  1503   002622  EC0A  F011         	call	_lcd_4bit_send_string	;wreg free
  1504   002626  6E24               	movwf	lcd_4bit_send_string_pos@ret^0,c
  1505   002628                     l3398:
  1506                           
  1507                           ;ECU_layer/Char_lCD/ecu_chr_lcd.c: 186:     return ret;
  1508   002628  5024               	movf	lcd_4bit_send_string_pos@ret^0,w,c
  1509   00262A  0012               	return		;funcret
  1510   00262C                     __end_of_lcd_4bit_send_string_pos:
  1511                           	callstack 0
  1512                           
  1513 ;; *************** function _lcd_4bit_set_cursor *****************
  1514 ;; Defined at:
  1515 ;;		line 569 in file "ECU_layer/Char_lCD/ecu_chr_lcd.c"
  1516 ;; Parameters:    Size  Location     Type
  1517 ;;  lcd_obj         2   22[COMRAM] PTR const struct .
  1518 ;;		 -> lcd_1(6), 
  1519 ;;  row             1   24[COMRAM] unsigned char 
  1520 ;;  column          1   25[COMRAM] unsigned char 
  1521 ;; Auto vars:     Size  Location     Type
  1522 ;;  ret             1   28[COMRAM] unsigned char 
  1523 ;; Return value:  Size  Location     Type
  1524 ;;                  1    wreg      unsigned char 
  1525 ;; Registers used:
  1526 ;;		wreg, fsr2l, fsr2h, status,2, status,0, prodl, prodh, cstack
  1527 ;; Tracked objects:
  1528 ;;		On entry : 0/0
  1529 ;;		On exit  : 0/0
  1530 ;;		Unchanged: 0/0
  1531 ;; Data sizes:     COMRAM   BANK0   BANK1   BANK2   BANK3   BANK4   BANK5   BANK6   BANK7   BANK8   BANK9  BANK10  BANK1
      +1  BANK12  BANK13  BANK14  BANK15
  1532 ;;      Params:         4       0       0       0       0       0       0       0       0       0       0       0       
      +0       0       0       0       0
  1533 ;;      Locals:         1       0       0       0       0       0       0       0       0       0       0       0       
      +0       0       0       0       0
  1534 ;;      Temps:          2       0       0       0       0       0       0       0       0       0       0       0       
      +0       0       0       0       0
  1535 ;;      Totals:         7       0       0       0       0       0       0       0       0       0       0       0       
      +0       0       0       0       0
  1536 ;;Total ram usage:        7 bytes
  1537 ;; Hardware stack levels used: 1
  1538 ;; Hardware stack levels required when called: 3
  1539 ;; This function calls:
  1540 ;;		_lcd_4bit_send_command
  1541 ;; This function is called by:
  1542 ;;		_lcd_4bit_send_string_pos
  1543 ;;		_lcd_4bit_send_char_pos
  1544 ;; This function uses a non-reentrant model
  1545 ;;
  1546                           
  1547                           	psect	text2
  1548   001FEA                     __ptext2:
  1549                           	callstack 0
  1550   001FEA                     _lcd_4bit_set_cursor:
  1551                           	callstack 26
  1552   001FEA                     
  1553                           ;ECU_layer/Char_lCD/ecu_chr_lcd.c: 569: static Std_ReturnType lcd_4bit_set_cursor(const 
      +                          lcd_4bit_t *lcd_obj,uint8 row,uint8 column);ECU_layer/Char_lCD/ecu_chr_lcd.c: 570: {;ECU
      +                          _layer/Char_lCD/ecu_chr_lcd.c: 571:     Std_ReturnType ret = (Std_ReturnType)0x01;
  1554   001FEA  0E01               	movlw	1
  1555   001FEC  6E1D               	movwf	lcd_4bit_set_cursor@ret^0,c
  1556   001FEE                     
  1557                           ;ECU_layer/Char_lCD/ecu_chr_lcd.c: 572:     if(lcd_obj == ((void*)0))
  1558   001FEE  5017               	movf	lcd_4bit_set_cursor@lcd_obj^0,w,c
  1559   001FF0  1018               	iorwf	(lcd_4bit_set_cursor@lcd_obj+1)^0,w,c
  1560   001FF2  A4D8               	btfss	status,2,c
  1561   001FF4  EFFE  F00F         	goto	u2431
  1562   001FF8  EF00  F010         	goto	u2430
  1563   001FFC                     u2431:
  1564   001FFC  EF04  F010         	goto	l3208
  1565   002000                     u2430:
  1566   002000                     
  1567                           ;ECU_layer/Char_lCD/ecu_chr_lcd.c: 573:     {;ECU_layer/Char_lCD/ecu_chr_lcd.c: 574:    
      +                               ret = (Std_ReturnType)0x00;
  1568   002000  0E00               	movlw	0
  1569   002002  6E1D               	movwf	lcd_4bit_set_cursor@ret^0,c
  1570                           
  1571                           ;ECU_layer/Char_lCD/ecu_chr_lcd.c: 575:     }
  1572   002004  EF54  F010         	goto	l3220
  1573   002008                     l3208:
  1574                           
  1575                           ;ECU_layer/Char_lCD/ecu_chr_lcd.c: 577:     {;ECU_layer/Char_lCD/ecu_chr_lcd.c: 578:    
      +                               column--;
  1576   002008  061A               	decf	lcd_4bit_set_cursor@column^0,f,c
  1577                           
  1578                           ;ECU_layer/Char_lCD/ecu_chr_lcd.c: 579:         switch (row)
  1579   00200A  EF37  F010         	goto	l3218
  1580   00200E                     l3210:
  1581                           
  1582                           ;ECU_layer/Char_lCD/ecu_chr_lcd.c: 582:                 ret = lcd_4bit_send_command(lcd_
      +                          obj,(0x80 + column));
  1583   00200E  C017  F013         	movff	lcd_4bit_set_cursor@lcd_obj,lcd_4bit_send_command@lcd_obj
  1584   002012  C018  F014         	movff	lcd_4bit_set_cursor@lcd_obj+1,lcd_4bit_send_command@lcd_obj+1
  1585   002016  501A               	movf	lcd_4bit_set_cursor@column^0,w,c
  1586   002018  0F80               	addlw	128
  1587   00201A  6E15               	movwf	lcd_4bit_send_command@command^0,c
  1588   00201C  EC0C  F012         	call	_lcd_4bit_send_command	;wreg free
  1589   002020  6E1D               	movwf	lcd_4bit_set_cursor@ret^0,c
  1590                           
  1591                           ;ECU_layer/Char_lCD/ecu_chr_lcd.c: 583:             break;
  1592   002022  EF54  F010         	goto	l3220
  1593   002026                     l3212:
  1594                           
  1595                           ;ECU_layer/Char_lCD/ecu_chr_lcd.c: 585:                 ret = lcd_4bit_send_command(lcd_
      +                          obj,(0xC0 + column));
  1596   002026  C017  F013         	movff	lcd_4bit_set_cursor@lcd_obj,lcd_4bit_send_command@lcd_obj
  1597   00202A  C018  F014         	movff	lcd_4bit_set_cursor@lcd_obj+1,lcd_4bit_send_command@lcd_obj+1
  1598   00202E  501A               	movf	lcd_4bit_set_cursor@column^0,w,c
  1599   002030  0FC0               	addlw	192
  1600   002032  6E15               	movwf	lcd_4bit_send_command@command^0,c
  1601   002034  EC0C  F012         	call	_lcd_4bit_send_command	;wreg free
  1602   002038  6E1D               	movwf	lcd_4bit_set_cursor@ret^0,c
  1603                           
  1604                           ;ECU_layer/Char_lCD/ecu_chr_lcd.c: 586:             break;
  1605   00203A  EF54  F010         	goto	l3220
  1606   00203E                     l3214:
  1607                           
  1608                           ;ECU_layer/Char_lCD/ecu_chr_lcd.c: 588:                 ret = lcd_4bit_send_command(lcd_
      +                          obj,(0x94 + column));
  1609   00203E  C017  F013         	movff	lcd_4bit_set_cursor@lcd_obj,lcd_4bit_send_command@lcd_obj
  1610   002042  C018  F014         	movff	lcd_4bit_set_cursor@lcd_obj+1,lcd_4bit_send_command@lcd_obj+1
  1611   002046  501A               	movf	lcd_4bit_set_cursor@column^0,w,c
  1612   002048  0F94               	addlw	148
  1613   00204A  6E15               	movwf	lcd_4bit_send_command@command^0,c
  1614   00204C  EC0C  F012         	call	_lcd_4bit_send_command	;wreg free
  1615   002050  6E1D               	movwf	lcd_4bit_set_cursor@ret^0,c
  1616                           
  1617                           ;ECU_layer/Char_lCD/ecu_chr_lcd.c: 589:             break;
  1618   002052  EF54  F010         	goto	l3220
  1619   002056                     l3216:
  1620                           
  1621                           ;ECU_layer/Char_lCD/ecu_chr_lcd.c: 591:                 ret = lcd_4bit_send_command(lcd_
      +                          obj,(0xD4 + column));
  1622   002056  C017  F013         	movff	lcd_4bit_set_cursor@lcd_obj,lcd_4bit_send_command@lcd_obj
  1623   00205A  C018  F014         	movff	lcd_4bit_set_cursor@lcd_obj+1,lcd_4bit_send_command@lcd_obj+1
  1624   00205E  501A               	movf	lcd_4bit_set_cursor@column^0,w,c
  1625   002060  0FD4               	addlw	212
  1626   002062  6E15               	movwf	lcd_4bit_send_command@command^0,c
  1627   002064  EC0C  F012         	call	_lcd_4bit_send_command	;wreg free
  1628   002068  6E1D               	movwf	lcd_4bit_set_cursor@ret^0,c
  1629                           
  1630                           ;ECU_layer/Char_lCD/ecu_chr_lcd.c: 592:             break;
  1631   00206A  EF54  F010         	goto	l3220
  1632   00206E                     l3218:
  1633   00206E  5019               	movf	lcd_4bit_set_cursor@row^0,w,c
  1634   002070  6E1B               	movwf	??_lcd_4bit_set_cursor^0,c
  1635   002072  6A1C               	clrf	(??_lcd_4bit_set_cursor+1)^0,c
  1636                           
  1637                           ; Switch on 2 bytes has been partitioned into a top level switch of size 1, and 1 sub-sw
      +                          itches
  1638                           ; Switch size 1, requested type "simple"
  1639                           ; Number of cases is 1, Range of values is 0 to 0
  1640                           ; switch strategies available:
  1641                           ; Name         Instructions Cycles
  1642                           ; simple_byte            4     3 (average)
  1643                           ;	Chosen strategy is simple_byte
  1644   002074  501C               	movf	(??_lcd_4bit_set_cursor+1)^0,w,c
  1645   002076  0A00               	xorlw	0	; case 0
  1646   002078  B4D8               	btfsc	status,2,c
  1647   00207A  EF41  F010         	goto	l4256
  1648   00207E  EF54  F010         	goto	l3220
  1649   002082                     l4256:
  1650                           
  1651                           ; Switch size 1, requested type "simple"
  1652                           ; Number of cases is 4, Range of values is 1 to 4
  1653                           ; switch strategies available:
  1654                           ; Name         Instructions Cycles
  1655                           ; simple_byte           13     7 (average)
  1656                           ;	Chosen strategy is simple_byte
  1657   002082  501B               	movf	??_lcd_4bit_set_cursor^0,w,c
  1658   002084  0A01               	xorlw	1	; case 1
  1659   002086  B4D8               	btfsc	status,2,c
  1660   002088  EF07  F010         	goto	l3210
  1661   00208C  0A03               	xorlw	3	; case 2
  1662   00208E  B4D8               	btfsc	status,2,c
  1663   002090  EF13  F010         	goto	l3212
  1664   002094  0A01               	xorlw	1	; case 3
  1665   002096  B4D8               	btfsc	status,2,c
  1666   002098  EF1F  F010         	goto	l3214
  1667   00209C  0A07               	xorlw	7	; case 4
  1668   00209E  B4D8               	btfsc	status,2,c
  1669   0020A0  EF2B  F010         	goto	l3216
  1670   0020A4  EF54  F010         	goto	l3220
  1671   0020A8                     l3220:
  1672                           
  1673                           ;ECU_layer/Char_lCD/ecu_chr_lcd.c: 598:     return ret;
  1674   0020A8  501D               	movf	lcd_4bit_set_cursor@ret^0,w,c
  1675   0020AA  0012               	return		;funcret
  1676   0020AC                     __end_of_lcd_4bit_set_cursor:
  1677                           	callstack 0
  1678                           
  1679 ;; *************** function _lcd_4bit_send_string *****************
  1680 ;; Defined at:
  1681 ;;		line 144 in file "ECU_layer/Char_lCD/ecu_chr_lcd.c"
  1682 ;; Parameters:    Size  Location     Type
  1683 ;;  lcd_obj         2   22[COMRAM] PTR const struct .
  1684 ;;		 -> lcd_1(6), 
  1685 ;;  string          2   24[COMRAM] PTR unsigned char 
  1686 ;;		 -> STR_5(13), STR_4(19), a(11), 
  1687 ;; Auto vars:     Size  Location     Type
  1688 ;;  ret             1   26[COMRAM] unsigned char 
  1689 ;; Return value:  Size  Location     Type
  1690 ;;                  1    wreg      unsigned char 
  1691 ;; Registers used:
  1692 ;;		wreg, fsr0l, fsr0h, fsr2l, fsr2h, status,2, status,0, tblptrl, tblptrh, tblptru, prodl, prodh, cstack
  1693 ;; Tracked objects:
  1694 ;;		On entry : 0/0
  1695 ;;		On exit  : 0/0
  1696 ;;		Unchanged: 0/0
  1697 ;; Data sizes:     COMRAM   BANK0   BANK1   BANK2   BANK3   BANK4   BANK5   BANK6   BANK7   BANK8   BANK9  BANK10  BANK1
      +1  BANK12  BANK13  BANK14  BANK15
  1698 ;;      Params:         4       0       0       0       0       0       0       0       0       0       0       0       
      +0       0       0       0       0
  1699 ;;      Locals:         1       0       0       0       0       0       0       0       0       0       0       0       
      +0       0       0       0       0
  1700 ;;      Temps:          0       0       0       0       0       0       0       0       0       0       0       0       
      +0       0       0       0       0
  1701 ;;      Totals:         5       0       0       0       0       0       0       0       0       0       0       0       
      +0       0       0       0       0
  1702 ;;Total ram usage:        5 bytes
  1703 ;; Hardware stack levels used: 1
  1704 ;; Hardware stack levels required when called: 3
  1705 ;; This function calls:
  1706 ;;		_lcd_4bit_send_char
  1707 ;; This function is called by:
  1708 ;;		_lcd_4bit_send_string_pos
  1709 ;;		_main
  1710 ;; This function uses a non-reentrant model
  1711 ;;
  1712                           
  1713                           	psect	text3
  1714   002214                     __ptext3:
  1715                           	callstack 0
  1716   002214                     _lcd_4bit_send_string:
  1717                           	callstack 26
  1718   002214                     
  1719                           ;ECU_layer/Char_lCD/ecu_chr_lcd.c: 144: Std_ReturnType lcd_4bit_send_string(const lcd_4b
      +                          it_t *lcd_obj,uint8 *string);ECU_layer/Char_lCD/ecu_chr_lcd.c: 145: {;ECU_layer/Char_lCD
      +                          /ecu_chr_lcd.c: 146:     Std_ReturnType ret = (Std_ReturnType)0x01;
  1720   002214  0E01               	movlw	1
  1721   002216  6E1B               	movwf	lcd_4bit_send_string@ret^0,c
  1722   002218                     
  1723                           ;ECU_layer/Char_lCD/ecu_chr_lcd.c: 147:     if((lcd_obj == ((void*)0))||(string==((void*
      +                          )0)))
  1724   002218  5017               	movf	lcd_4bit_send_string@lcd_obj^0,w,c
  1725   00221A  1018               	iorwf	(lcd_4bit_send_string@lcd_obj+1)^0,w,c
  1726   00221C  B4D8               	btfsc	status,2,c
  1727   00221E  EF13  F011         	goto	u2441
  1728   002222  EF15  F011         	goto	u2440
  1729   002226                     u2441:
  1730   002226  EF1E  F011         	goto	l3234
  1731   00222A                     u2440:
  1732   00222A  5019               	movf	lcd_4bit_send_string@string^0,w,c
  1733   00222C  101A               	iorwf	(lcd_4bit_send_string@string+1)^0,w,c
  1734   00222E  A4D8               	btfss	status,2,c
  1735   002230  EF1C  F011         	goto	u2451
  1736   002234  EF1E  F011         	goto	u2450
  1737   002238                     u2451:
  1738   002238  EF3D  F011         	goto	l3240
  1739   00223C                     u2450:
  1740   00223C                     l3234:
  1741                           
  1742                           ;ECU_layer/Char_lCD/ecu_chr_lcd.c: 148:     {;ECU_layer/Char_lCD/ecu_chr_lcd.c: 149:    
      +                               ret = (Std_ReturnType)0x00;
  1743   00223C  0E00               	movlw	0
  1744   00223E  6E1B               	movwf	lcd_4bit_send_string@ret^0,c
  1745                           
  1746                           ;ECU_layer/Char_lCD/ecu_chr_lcd.c: 150:     }
  1747   002240  EF56  F011         	goto	l3242
  1748   002244                     l3236:
  1749                           
  1750                           ;ECU_layer/Char_lCD/ecu_chr_lcd.c: 154:         {;ECU_layer/Char_lCD/ecu_chr_lcd.c: 155:
      +                                       ret = lcd_4bit_send_char(lcd_obj,*string++);
  1751   002244  C017  F013         	movff	lcd_4bit_send_string@lcd_obj,lcd_4bit_send_char@lcd_obj
  1752   002248  C018  F014         	movff	lcd_4bit_send_string@lcd_obj+1,lcd_4bit_send_char@lcd_obj+1
  1753   00224C  C019  FFF6         	movff	lcd_4bit_send_string@string,tblptrl
  1754   002250  C01A  FFF7         	movff	lcd_4bit_send_string@string+1,tblptrh
  1755   002254  0E00               	movlw	low (__smallconst shr (0+16))
  1756   002256  6EF8               	movwf	tblptru,c
  1757   002258  0E0F               	movlw	(high __ramtop+-1)
  1758   00225A  64F7               	cpfsgt	tblptrh,c
  1759   00225C  D003               	bra	u2467
  1760   00225E  0008               	tblrd		*
  1761   002260  50F5               	movf	tablat,w,c
  1762   002262  D005               	bra	u2460
  1763   002264                     u2467:
  1764   002264  CFF6 FFE9          	movff	tblptrl,fsr0l
  1765   002268  CFF7 FFEA          	movff	tblptrh,fsr0h
  1766   00226C  50EF               	movf	indf0,w,c
  1767   00226E                     u2460:
  1768   00226E  6E15               	movwf	lcd_4bit_send_char@chr^0,c
  1769   002270  ECD1  F011         	call	_lcd_4bit_send_char	;wreg free
  1770   002274  6E1B               	movwf	lcd_4bit_send_string@ret^0,c
  1771   002276  4A19               	infsnz	lcd_4bit_send_string@string^0,f,c
  1772   002278  2A1A               	incf	(lcd_4bit_send_string@string+1)^0,f,c
  1773   00227A                     l3240:
  1774                           
  1775                           ;ECU_layer/Char_lCD/ecu_chr_lcd.c: 153:         while(*string)
  1776   00227A  C019  FFF6         	movff	lcd_4bit_send_string@string,tblptrl
  1777   00227E  C01A  FFF7         	movff	lcd_4bit_send_string@string+1,tblptrh
  1778   002282  0E00               	movlw	low (__smallconst shr (0+16))
  1779   002284  6EF8               	movwf	tblptru,c
  1780   002286  0E0F               	movlw	(high __ramtop+-1)
  1781   002288  64F7               	cpfsgt	tblptrh,c
  1782   00228A  D003               	bra	u2477
  1783   00228C  0008               	tblrd		*
  1784   00228E  50F5               	movf	tablat,w,c
  1785   002290  D005               	bra	u2470
  1786   002292                     u2477:
  1787   002292  CFF6 FFE9          	movff	tblptrl,fsr0l
  1788   002296  CFF7 FFEA          	movff	tblptrh,fsr0h
  1789   00229A  50EF               	movf	indf0,w,c
  1790   00229C                     u2470:
  1791   00229C  0900               	iorlw	0
  1792   00229E  A4D8               	btfss	status,2,c
  1793   0022A0  EF54  F011         	goto	u2481
  1794   0022A4  EF56  F011         	goto	u2480
  1795   0022A8                     u2481:
  1796   0022A8  EF22  F011         	goto	l3236
  1797   0022AC                     u2480:
  1798   0022AC                     l3242:
  1799                           
  1800                           ;ECU_layer/Char_lCD/ecu_chr_lcd.c: 160:     return ret;
  1801   0022AC  501B               	movf	lcd_4bit_send_string@ret^0,w,c
  1802   0022AE  0012               	return		;funcret
  1803   0022B0                     __end_of_lcd_4bit_send_string:
  1804                           	callstack 0
  1805                           
  1806 ;; *************** function _lcd_4bit_send_char *****************
  1807 ;; Defined at:
  1808 ;;		line 92 in file "ECU_layer/Char_lCD/ecu_chr_lcd.c"
  1809 ;; Parameters:    Size  Location     Type
  1810 ;;  lcd_obj         2   18[COMRAM] PTR const struct .
  1811 ;;		 -> lcd_1(6), 
  1812 ;;  chr             1   20[COMRAM] unsigned char 
  1813 ;; Auto vars:     Size  Location     Type
  1814 ;;  ret             1   21[COMRAM] unsigned char 
  1815 ;; Return value:  Size  Location     Type
  1816 ;;                  1    wreg      unsigned char 
  1817 ;; Registers used:
  1818 ;;		wreg, fsr2l, fsr2h, status,2, status,0, prodl, prodh, cstack
  1819 ;; Tracked objects:
  1820 ;;		On entry : 0/0
  1821 ;;		On exit  : 0/0
  1822 ;;		Unchanged: 0/0
  1823 ;; Data sizes:     COMRAM   BANK0   BANK1   BANK2   BANK3   BANK4   BANK5   BANK6   BANK7   BANK8   BANK9  BANK10  BANK1
      +1  BANK12  BANK13  BANK14  BANK15
  1824 ;;      Params:         3       0       0       0       0       0       0       0       0       0       0       0       
      +0       0       0       0       0
  1825 ;;      Locals:         1       0       0       0       0       0       0       0       0       0       0       0       
      +0       0       0       0       0
  1826 ;;      Temps:          0       0       0       0       0       0       0       0       0       0       0       0       
      +0       0       0       0       0
  1827 ;;      Totals:         4       0       0       0       0       0       0       0       0       0       0       0       
      +0       0       0       0       0
  1828 ;;Total ram usage:        4 bytes
  1829 ;; Hardware stack levels used: 1
  1830 ;; Hardware stack levels required when called: 2
  1831 ;; This function calls:
  1832 ;;		_gpio_pin_write_logic
  1833 ;;		_lcd_4bit_send_enable
  1834 ;;		_lcd_send_4bit
  1835 ;; This function is called by:
  1836 ;;		_lcd_4bit_send_string
  1837 ;;		_main
  1838 ;;		_lcd_4bit_send_char_pos
  1839 ;;		_lcd_4bit_send_custome_chr
  1840 ;; This function uses a non-reentrant model
  1841 ;;
  1842                           
  1843                           	psect	text4
  1844   0023A2                     __ptext4:
  1845                           	callstack 0
  1846   0023A2                     _lcd_4bit_send_char:
  1847                           	callstack 26
  1848   0023A2                     
  1849                           ;ECU_layer/Char_lCD/ecu_chr_lcd.c: 95:     if(lcd_obj == ((void*)0))
  1850   0023A2  5013               	movf	lcd_4bit_send_char@lcd_obj^0,w,c
  1851   0023A4  1014               	iorwf	(lcd_4bit_send_char@lcd_obj+1)^0,w,c
  1852   0023A6  A4D8               	btfss	status,2,c
  1853   0023A8  EFD8  F011         	goto	u2381
  1854   0023AC  EFDA  F011         	goto	u2380
  1855   0023B0                     u2381:
  1856   0023B0  EFDE  F011         	goto	l3152
  1857   0023B4                     u2380:
  1858   0023B4                     
  1859                           ;ECU_layer/Char_lCD/ecu_chr_lcd.c: 96:     {;ECU_layer/Char_lCD/ecu_chr_lcd.c: 97:      
      +                             ret = (Std_ReturnType)0x00;
  1860   0023B4  0E00               	movlw	0
  1861   0023B6  6E16               	movwf	lcd_4bit_send_char@ret^0,c
  1862                           
  1863                           ;ECU_layer/Char_lCD/ecu_chr_lcd.c: 98:     }
  1864   0023B8  EF0A  F012         	goto	l3154
  1865   0023BC                     l3152:
  1866                           
  1867                           ;ECU_layer/Char_lCD/ecu_chr_lcd.c: 100:     {;ECU_layer/Char_lCD/ecu_chr_lcd.c: 101:    
      +                               ret = gpio_pin_write_logic(&(lcd_obj->lcd_rs),GPIO_HIGH);
  1868   0023BC  0E05               	movlw	5
  1869   0023BE  2413               	addwf	lcd_4bit_send_char@lcd_obj^0,w,c
  1870   0023C0  6E01               	movwf	gpio_pin_write_logic@pin^0,c
  1871   0023C2  0E00               	movlw	0
  1872   0023C4  2014               	addwfc	(lcd_4bit_send_char@lcd_obj+1)^0,w,c
  1873   0023C6  6E02               	movwf	(gpio_pin_write_logic@pin+1)^0,c
  1874   0023C8  0E01               	movlw	1
  1875   0023CA  6E03               	movwf	gpio_pin_write_logic@log^0,c
  1876   0023CC  EC80  F00D         	call	_gpio_pin_write_logic	;wreg free
  1877   0023D0  6E16               	movwf	lcd_4bit_send_char@ret^0,c
  1878                           
  1879                           ;ECU_layer/Char_lCD/ecu_chr_lcd.c: 102:         ret = lcd_send_4bit(lcd_obj,(chr>>4));
  1880   0023D2  C013  F00B         	movff	lcd_4bit_send_char@lcd_obj,lcd_send_4bit@lcd_obj
  1881   0023D6  C014  F00C         	movff	lcd_4bit_send_char@lcd_obj+1,lcd_send_4bit@lcd_obj+1
  1882   0023DA  3815               	swapf	lcd_4bit_send_char@chr^0,w,c
  1883   0023DC  0B0F               	andlw	15
  1884   0023DE  6E0D               	movwf	lcd_send_4bit@data_command^0,c
  1885   0023E0  EC47  F012         	call	_lcd_send_4bit	;wreg free
  1886   0023E4  6E16               	movwf	lcd_4bit_send_char@ret^0,c
  1887                           
  1888                           ;ECU_layer/Char_lCD/ecu_chr_lcd.c: 103:         ret = lcd_4bit_send_enable(lcd_obj);
  1889   0023E6  C013  F00B         	movff	lcd_4bit_send_char@lcd_obj,lcd_4bit_send_enable@lcd_obj
  1890   0023EA  C014  F00C         	movff	lcd_4bit_send_char@lcd_obj+1,lcd_4bit_send_enable@lcd_obj+1
  1891   0023EE  EC6A  F013         	call	_lcd_4bit_send_enable	;wreg free
  1892   0023F2  6E16               	movwf	lcd_4bit_send_char@ret^0,c
  1893                           
  1894                           ;ECU_layer/Char_lCD/ecu_chr_lcd.c: 104:         ret = lcd_send_4bit(lcd_obj,chr);
  1895   0023F4  C013  F00B         	movff	lcd_4bit_send_char@lcd_obj,lcd_send_4bit@lcd_obj
  1896   0023F8  C014  F00C         	movff	lcd_4bit_send_char@lcd_obj+1,lcd_send_4bit@lcd_obj+1
  1897   0023FC  C015  F00D         	movff	lcd_4bit_send_char@chr,lcd_send_4bit@data_command
  1898   002400  EC47  F012         	call	_lcd_send_4bit	;wreg free
  1899   002404  6E16               	movwf	lcd_4bit_send_char@ret^0,c
  1900                           
  1901                           ;ECU_layer/Char_lCD/ecu_chr_lcd.c: 105:         ret = lcd_4bit_send_enable(lcd_obj);
  1902   002406  C013  F00B         	movff	lcd_4bit_send_char@lcd_obj,lcd_4bit_send_enable@lcd_obj
  1903   00240A  C014  F00C         	movff	lcd_4bit_send_char@lcd_obj+1,lcd_4bit_send_enable@lcd_obj+1
  1904   00240E  EC6A  F013         	call	_lcd_4bit_send_enable	;wreg free
  1905   002412  6E16               	movwf	lcd_4bit_send_char@ret^0,c
  1906   002414                     l3154:
  1907                           
  1908                           ;ECU_layer/Char_lCD/ecu_chr_lcd.c: 107:     return ret;
  1909   002414  5016               	movf	lcd_4bit_send_char@ret^0,w,c
  1910   002416  0012               	return		;funcret
  1911   002418                     __end_of_lcd_4bit_send_char:
  1912                           	callstack 0
  1913                           
  1914 ;; *************** function _keypad_get_value *****************
  1915 ;; Defined at:
  1916 ;;		line 58 in file "ECU_layer/key_pad/ecu_key_pad.c"
  1917 ;; Parameters:    Size  Location     Type
  1918 ;;  keypad          2   10[COMRAM] PTR const struct .
  1919 ;;		 -> kp1(8), 
  1920 ;;  value           2   12[COMRAM] PTR unsigned char 
  1921 ;;		 -> keypad_value(1), 
  1922 ;; Auto vars:     Size  Location     Type
  1923 ;;  coulmn_count    1   20[COMRAM] unsigned char 
  1924 ;;  row_counter     1   19[COMRAM] unsigned char 
  1925 ;;  counter         1   18[COMRAM] unsigned char 
  1926 ;;  log             1   17[COMRAM] enum E2985
  1927 ;;  ret             1   16[COMRAM] unsigned char 
  1928 ;; Return value:  Size  Location     Type
  1929 ;;                  1    wreg      unsigned char 
  1930 ;; Registers used:
  1931 ;;		wreg, fsr2l, fsr2h, status,2, status,0, tblptrl, tblptrh, tblptru, prodl, prodh, cstack
  1932 ;; Tracked objects:
  1933 ;;		On entry : 0/0
  1934 ;;		On exit  : 0/0
  1935 ;;		Unchanged: 0/0
  1936 ;; Data sizes:     COMRAM   BANK0   BANK1   BANK2   BANK3   BANK4   BANK5   BANK6   BANK7   BANK8   BANK9  BANK10  BANK1
      +1  BANK12  BANK13  BANK14  BANK15
  1937 ;;      Params:         4       0       0       0       0       0       0       0       0       0       0       0       
      +0       0       0       0       0
  1938 ;;      Locals:         5       0       0       0       0       0       0       0       0       0       0       0       
      +0       0       0       0       0
  1939 ;;      Temps:          2       0       0       0       0       0       0       0       0       0       0       0       
      +0       0       0       0       0
  1940 ;;      Totals:        11       0       0       0       0       0       0       0       0       0       0       0       
      +0       0       0       0       0
  1941 ;;Total ram usage:       11 bytes
  1942 ;; Hardware stack levels used: 1
  1943 ;; Hardware stack levels required when called: 1
  1944 ;; This function calls:
  1945 ;;		_gpio_pin_read_logic
  1946 ;;		_gpio_pin_write_logic
  1947 ;; This function is called by:
  1948 ;;		_main
  1949 ;; This function uses a non-reentrant model
  1950 ;;
  1951                           
  1952                           	psect	text5
  1953   001D4E                     __ptext5:
  1954                           	callstack 0
  1955   001D4E                     _keypad_get_value:
  1956                           	callstack 29
  1957   001D4E                     
  1958                           ;ECU_layer/key_pad/ecu_key_pad.c: 61:     logic_t log = GPIO_LOW;
  1959   001D4E  0E00               	movlw	0
  1960   001D50  6E12               	movwf	keypad_get_value@log^0,c
  1961                           
  1962                           ;ECU_layer/key_pad/ecu_key_pad.c: 62:     uint8 row_counter=0,counter=0,coulmn_counter=0
      +                          ;
  1963   001D52  0E00               	movlw	0
  1964   001D54  6E14               	movwf	keypad_get_value@row_counter^0,c
  1965   001D56  0E00               	movlw	0
  1966   001D58  6E13               	movwf	keypad_get_value@counter^0,c
  1967   001D5A  0E00               	movlw	0
  1968   001D5C  6E15               	movwf	keypad_get_value@coulmn_counter^0,c
  1969   001D5E                     
  1970                           ;ECU_layer/key_pad/ecu_key_pad.c: 63:     if((keypad==((void*)0))||(value==((void*)0)))
  1971   001D5E  500B               	movf	keypad_get_value@keypad^0,w,c
  1972   001D60  100C               	iorwf	(keypad_get_value@keypad+1)^0,w,c
  1973   001D62  B4D8               	btfsc	status,2,c
  1974   001D64  EFB6  F00E         	goto	u2771
  1975   001D68  EFB8  F00E         	goto	u2770
  1976   001D6C                     u2771:
  1977   001D6C  EFC1  F00E         	goto	l3478
  1978   001D70                     u2770:
  1979   001D70  500D               	movf	keypad_get_value@value^0,w,c
  1980   001D72  100E               	iorwf	(keypad_get_value@value+1)^0,w,c
  1981   001D74  A4D8               	btfss	status,2,c
  1982   001D76  EFBF  F00E         	goto	u2781
  1983   001D7A  EFC1  F00E         	goto	u2780
  1984   001D7E                     u2781:
  1985   001D7E  EFC5  F00E         	goto	l3480
  1986   001D82                     u2780:
  1987   001D82                     l3478:
  1988                           
  1989                           ;ECU_layer/key_pad/ecu_key_pad.c: 64:     {;ECU_layer/key_pad/ecu_key_pad.c: 65:        
      +                           ret = (Std_ReturnType)0x00;
  1990   001D82  0E00               	movlw	0
  1991   001D84  6E11               	movwf	keypad_get_value@ret^0,c
  1992                           
  1993                           ;ECU_layer/key_pad/ecu_key_pad.c: 66:     }
  1994   001D86  EF2C  F00F         	goto	l3520
  1995   001D8A                     l3480:
  1996                           
  1997                           ;ECU_layer/key_pad/ecu_key_pad.c: 68:     {;ECU_layer/key_pad/ecu_key_pad.c: 69:        
      +                           for(row_counter=0;row_counter<4;row_counter++)
  1998   001D8A  0E00               	movlw	0
  1999   001D8C  6E14               	movwf	keypad_get_value@row_counter^0,c
  2000   001D8E                     l3486:
  2001                           
  2002                           ;ECU_layer/key_pad/ecu_key_pad.c: 70:         {;ECU_layer/key_pad/ecu_key_pad.c: 71:    
      +                                   for(counter=0;counter<4;counter++)
  2003   001D8E  0E00               	movlw	0
  2004   001D90  6E13               	movwf	keypad_get_value@counter^0,c
  2005   001D92                     l3492:
  2006   001D92  5013               	movf	keypad_get_value@counter^0,w,c
  2007   001D94  240B               	addwf	keypad_get_value@keypad^0,w,c
  2008   001D96  6E01               	movwf	gpio_pin_write_logic@pin^0,c
  2009   001D98  0E00               	movlw	0
  2010   001D9A  200C               	addwfc	(keypad_get_value@keypad+1)^0,w,c
  2011   001D9C  6E02               	movwf	(gpio_pin_write_logic@pin+1)^0,c
  2012   001D9E  0E00               	movlw	0
  2013   001DA0  6E03               	movwf	gpio_pin_write_logic@log^0,c
  2014   001DA2  EC80  F00D         	call	_gpio_pin_write_logic	;wreg free
  2015   001DA6                     
  2016                           ;ECU_layer/key_pad/ecu_key_pad.c: 74:             }
  2017   001DA6  2A13               	incf	keypad_get_value@counter^0,f,c
  2018   001DA8  0E03               	movlw	3
  2019   001DAA  6413               	cpfsgt	keypad_get_value@counter^0,c
  2020   001DAC  EFDA  F00E         	goto	u2791
  2021   001DB0  EFDC  F00E         	goto	u2790
  2022   001DB4                     u2791:
  2023   001DB4  EFC9  F00E         	goto	l3492
  2024   001DB8                     u2790:
  2025   001DB8  5014               	movf	keypad_get_value@row_counter^0,w,c
  2026   001DBA  240B               	addwf	keypad_get_value@keypad^0,w,c
  2027   001DBC  6E01               	movwf	gpio_pin_write_logic@pin^0,c
  2028   001DBE  0E00               	movlw	0
  2029   001DC0  200C               	addwfc	(keypad_get_value@keypad+1)^0,w,c
  2030   001DC2  6E02               	movwf	(gpio_pin_write_logic@pin+1)^0,c
  2031   001DC4  0E01               	movlw	1
  2032   001DC6  6E03               	movwf	gpio_pin_write_logic@log^0,c
  2033   001DC8  EC80  F00D         	call	_gpio_pin_write_logic	;wreg free
  2034   001DCC                     
  2035                           ;ECU_layer/key_pad/ecu_key_pad.c: 76:             for(coulmn_counter=0;coulmn_counter<4;
      +                          coulmn_counter++)
  2036   001DCC  0E00               	movlw	0
  2037   001DCE  6E15               	movwf	keypad_get_value@coulmn_counter^0,c
  2038   001DD0                     l3506:
  2039                           
  2040                           ;ECU_layer/key_pad/ecu_key_pad.c: 77:             {;ECU_layer/key_pad/ecu_key_pad.c: 78:
      +                                           ret = gpio_pin_read_logic(&(keypad->keypad_coulmns_pins[coulmn_counter]
      +                          ),&log);
  2041   001DD0  5015               	movf	keypad_get_value@coulmn_counter^0,w,c
  2042   001DD2  240B               	addwf	keypad_get_value@keypad^0,w,c
  2043   001DD4  6E0F               	movwf	??_keypad_get_value^0,c
  2044   001DD6  0E00               	movlw	0
  2045   001DD8  200C               	addwfc	(keypad_get_value@keypad+1)^0,w,c
  2046   001DDA  6E10               	movwf	(??_keypad_get_value+1)^0,c
  2047   001DDC  0E04               	movlw	4
  2048   001DDE  240F               	addwf	??_keypad_get_value^0,w,c
  2049   001DE0  6E01               	movwf	gpio_pin_read_logic@pin^0,c
  2050   001DE2  0E00               	movlw	0
  2051   001DE4  2010               	addwfc	(??_keypad_get_value+1)^0,w,c
  2052   001DE6  6E02               	movwf	(gpio_pin_read_logic@pin+1)^0,c
  2053   001DE8  0E12               	movlw	low keypad_get_value@log
  2054   001DEA  6E03               	movwf	gpio_pin_read_logic@log^0,c
  2055   001DEC  0E00               	movlw	high keypad_get_value@log
  2056   001DEE  6E04               	movwf	(gpio_pin_read_logic@log+1)^0,c
  2057   001DF0  EC56  F010         	call	_gpio_pin_read_logic	;wreg free
  2058   001DF4  6E11               	movwf	keypad_get_value@ret^0,c
  2059   001DF6                     
  2060                           ;ECU_layer/key_pad/ecu_key_pad.c: 79:                 if(log == GPIO_HIGH)
  2061   001DF6  0412               	decf	keypad_get_value@log^0,w,c
  2062   001DF8  A4D8               	btfss	status,2,c
  2063   001DFA  EF01  F00F         	goto	u2801
  2064   001DFE  EF03  F00F         	goto	u2800
  2065   001E02                     u2801:
  2066   001E02  EF1A  F00F         	goto	l3512
  2067   001E06                     u2800:
  2068   001E06                     
  2069                           ;ECU_layer/key_pad/ecu_key_pad.c: 80:                 {;ECU_layer/key_pad/ecu_key_pad.c:
      +                           81:                     *value = btn_values [row_counter][coulmn_counter];
  2070   001E06  5014               	movf	keypad_get_value@row_counter^0,w,c
  2071   001E08  0D04               	mullw	4
  2072   001E0A  0E01               	movlw	low _btn_values
  2073   001E0C  24F3               	addwf	243,w,c
  2074   001E0E  6E0F               	movwf	??_keypad_get_value^0,c
  2075   001E10  0E10               	movlw	high _btn_values
  2076   001E12  20F4               	addwfc	prodh,w,c
  2077   001E14  6E10               	movwf	(??_keypad_get_value+1)^0,c
  2078   001E16  5015               	movf	keypad_get_value@coulmn_counter^0,w,c
  2079   001E18  260F               	addwf	??_keypad_get_value^0,f,c
  2080   001E1A  0E00               	movlw	0
  2081   001E1C  2210               	addwfc	(??_keypad_get_value+1)^0,f,c
  2082   001E1E  C00F  FFF6         	movff	??_keypad_get_value,tblptrl
  2083   001E22  C010  FFF7         	movff	??_keypad_get_value+1,tblptrh
  2084   001E26                     	if	0	;tblptru may be non-zero
  2085   001E26                     	endif
  2086   001E26                     	if	0	;tblptru may be non-zero
  2087   001E26                     	endif
  2088   001E26  C00D  FFD9         	movff	keypad_get_value@value,fsr2l
  2089   001E2A  C00E  FFDA         	movff	keypad_get_value@value+1,fsr2h
  2090   001E2E  0008               	tblrd		*
  2091   001E30  CFF5 FFDF          	movff	tablat,indf2
  2092   001E34                     l3512:
  2093                           
  2094                           ;ECU_layer/key_pad/ecu_key_pad.c: 84:             }
  2095   001E34  2A15               	incf	keypad_get_value@coulmn_counter^0,f,c
  2096   001E36  0E03               	movlw	3
  2097   001E38  6415               	cpfsgt	keypad_get_value@coulmn_counter^0,c
  2098   001E3A  EF21  F00F         	goto	u2811
  2099   001E3E  EF23  F00F         	goto	u2810
  2100   001E42                     u2811:
  2101   001E42  EFE8  F00E         	goto	l3506
  2102   001E46                     u2810:
  2103   001E46                     
  2104                           ;ECU_layer/key_pad/ecu_key_pad.c: 85:         }
  2105   001E46  2A14               	incf	keypad_get_value@row_counter^0,f,c
  2106   001E48  0E03               	movlw	3
  2107   001E4A  6414               	cpfsgt	keypad_get_value@row_counter^0,c
  2108   001E4C  EF2A  F00F         	goto	u2821
  2109   001E50  EF2C  F00F         	goto	u2820
  2110   001E54                     u2821:
  2111   001E54  EFC7  F00E         	goto	l3486
  2112   001E58                     u2820:
  2113   001E58                     l3520:
  2114                           
  2115                           ;ECU_layer/key_pad/ecu_key_pad.c: 87:      return ret;
  2116   001E58  5011               	movf	keypad_get_value@ret^0,w,c
  2117   001E5A  0012               	return		;funcret
  2118   001E5C                     __end_of_keypad_get_value:
  2119                           	callstack 0
  2120                           
  2121 ;; *************** function _gpio_pin_read_logic *****************
  2122 ;; Defined at:
  2123 ;;		line 75 in file "MCAL_layer/GPIO/hal_gpio.c"
  2124 ;; Parameters:    Size  Location     Type
  2125 ;;  pin             2    0[COMRAM] PTR const struct .
  2126 ;;		 -> kp1.keypad_coulmns_pins(4), kp1(8), 
  2127 ;;  log             2    2[COMRAM] PTR enum E2985
  2128 ;;		 -> push_button_read@btn_l(1), keypad_get_value@log(1), 
  2129 ;; Auto vars:     Size  Location     Type
  2130 ;;  ret             1    9[COMRAM] unsigned char 
  2131 ;; Return value:  Size  Location     Type
  2132 ;;                  1    wreg      unsigned char 
  2133 ;; Registers used:
  2134 ;;		wreg, fsr2l, fsr2h, status,2, status,0, prodl, prodh
  2135 ;; Tracked objects:
  2136 ;;		On entry : 0/0
  2137 ;;		On exit  : 0/0
  2138 ;;		Unchanged: 0/0
  2139 ;; Data sizes:     COMRAM   BANK0   BANK1   BANK2   BANK3   BANK4   BANK5   BANK6   BANK7   BANK8   BANK9  BANK10  BANK1
      +1  BANK12  BANK13  BANK14  BANK15
  2140 ;;      Params:         4       0       0       0       0       0       0       0       0       0       0       0       
      +0       0       0       0       0
  2141 ;;      Locals:         1       0       0       0       0       0       0       0       0       0       0       0       
      +0       0       0       0       0
  2142 ;;      Temps:          5       0       0       0       0       0       0       0       0       0       0       0       
      +0       0       0       0       0
  2143 ;;      Totals:        10       0       0       0       0       0       0       0       0       0       0       0       
      +0       0       0       0       0
  2144 ;;Total ram usage:       10 bytes
  2145 ;; Hardware stack levels used: 1
  2146 ;; This function calls:
  2147 ;;		Nothing
  2148 ;; This function is called by:
  2149 ;;		_keypad_get_value
  2150 ;;		_push_button_read
  2151 ;; This function uses a non-reentrant model
  2152 ;;
  2153                           
  2154                           	psect	text6
  2155   0020AC                     __ptext6:
  2156                           	callstack 0
  2157   0020AC                     _gpio_pin_read_logic:
  2158                           	callstack 29
  2159   0020AC                     
  2160                           ;MCAL_layer/GPIO/hal_gpio.c: 75: Std_ReturnType gpio_pin_read_logic(const pin_config *pi
      +                          n,logic_t *log);MCAL_layer/GPIO/hal_gpio.c: 76: {;MCAL_layer/GPIO/hal_gpio.c: 77:     St
      +                          d_ReturnType ret = (Std_ReturnType)0x01;
  2161   0020AC  0E01               	movlw	1
  2162   0020AE  6E0A               	movwf	gpio_pin_read_logic@ret^0,c
  2163   0020B0                     
  2164                           ;MCAL_layer/GPIO/hal_gpio.c: 78:     if((pin==((void*)0))||(pin->pin>=8)||(log==((void*)
      +                          0)))
  2165   0020B0  5001               	movf	gpio_pin_read_logic@pin^0,w,c
  2166   0020B2  1002               	iorwf	(gpio_pin_read_logic@pin+1)^0,w,c
  2167   0020B4  B4D8               	btfsc	status,2,c
  2168   0020B6  EF5F  F010         	goto	u2581
  2169   0020BA  EF61  F010         	goto	u2580
  2170   0020BE                     u2581:
  2171   0020BE  EF7B  F010         	goto	l3338
  2172   0020C2                     u2580:
  2173   0020C2  C001  FFD9         	movff	gpio_pin_read_logic@pin,fsr2l
  2174   0020C6  C002  FFDA         	movff	gpio_pin_read_logic@pin+1,fsr2h
  2175   0020CA  30DF               	rrcf	223,w,c
  2176   0020CC  32E8               	rrcf	wreg,f,c
  2177   0020CE  32E8               	rrcf	wreg,f,c
  2178   0020D0  0B07               	andlw	7
  2179   0020D2  6E05               	movwf	??_gpio_pin_read_logic^0,c
  2180   0020D4  0E08               	movlw	8
  2181   0020D6  6005               	cpfslt	??_gpio_pin_read_logic^0,c
  2182   0020D8  EF70  F010         	goto	u2591
  2183   0020DC  EF72  F010         	goto	u2590
  2184   0020E0                     u2591:
  2185   0020E0  EF7B  F010         	goto	l3338
  2186   0020E4                     u2590:
  2187   0020E4  5003               	movf	gpio_pin_read_logic@log^0,w,c
  2188   0020E6  1004               	iorwf	(gpio_pin_read_logic@log+1)^0,w,c
  2189   0020E8  A4D8               	btfss	status,2,c
  2190   0020EA  EF79  F010         	goto	u2601
  2191   0020EE  EF7B  F010         	goto	u2600
  2192   0020F2                     u2601:
  2193   0020F2  EF7F  F010         	goto	l3340
  2194   0020F6                     u2600:
  2195   0020F6                     l3338:
  2196                           
  2197                           ;MCAL_layer/GPIO/hal_gpio.c: 79:     {;MCAL_layer/GPIO/hal_gpio.c: 80:         ret = (St
      +                          d_ReturnType)0x00;
  2198   0020F6  0E00               	movlw	0
  2199   0020F8  6E0A               	movwf	gpio_pin_read_logic@ret^0,c
  2200                           
  2201                           ;MCAL_layer/GPIO/hal_gpio.c: 81:     }
  2202   0020FA  EFB0  F010         	goto	l3342
  2203   0020FE                     l3340:
  2204                           
  2205                           ;MCAL_layer/GPIO/hal_gpio.c: 83:     {;MCAL_layer/GPIO/hal_gpio.c: 84:         *log = ((
      +                          *port_registers[pin->port] >> pin->pin) & (uint8)1);
  2206   0020FE  C001  FFD9         	movff	gpio_pin_read_logic@pin,fsr2l
  2207   002102  C002  FFDA         	movff	gpio_pin_read_logic@pin+1,fsr2h
  2208   002106  30DF               	rrcf	223,w,c
  2209   002108  32E8               	rrcf	wreg,f,c
  2210   00210A  32E8               	rrcf	wreg,f,c
  2211   00210C  0B07               	andlw	7
  2212   00210E  6E05               	movwf	??_gpio_pin_read_logic^0,c
  2213   002110  C001  FFD9         	movff	gpio_pin_read_logic@pin,fsr2l
  2214   002114  C002  FFDA         	movff	gpio_pin_read_logic@pin+1,fsr2h
  2215   002118  50DF               	movf	223,w,c
  2216   00211A  0B07               	andlw	7
  2217   00211C  6E06               	movwf	(??_gpio_pin_read_logic+1)^0,c
  2218   00211E  5006               	movf	(??_gpio_pin_read_logic+1)^0,w,c
  2219   002120  0D02               	mullw	2
  2220   002122  0EDD               	movlw	low _port_registers
  2221   002124  24F3               	addwf	243,w,c
  2222   002126  6ED9               	movwf	fsr2l,c
  2223   002128  0E00               	movlw	high _port_registers
  2224   00212A  20F4               	addwfc	prodh,w,c
  2225   00212C  6EDA               	movwf	fsr2h,c
  2226   00212E  CFDE F007          	movff	postinc2,??_gpio_pin_read_logic+2
  2227   002132  CFDD F008          	movff	postdec2,??_gpio_pin_read_logic+3
  2228   002136  C007  FFD9         	movff	??_gpio_pin_read_logic+2,fsr2l
  2229   00213A  C008  FFDA         	movff	??_gpio_pin_read_logic+3,fsr2h
  2230   00213E  50DF               	movf	indf2,w,c
  2231   002140  6E09               	movwf	(??_gpio_pin_read_logic+4)^0,c
  2232   002142  2A05               	incf	??_gpio_pin_read_logic^0,f,c
  2233   002144  EFA6  F010         	goto	u2614
  2234   002148                     u2615:
  2235   002148  90D8               	bcf	status,0,c
  2236   00214A  3209               	rrcf	(??_gpio_pin_read_logic+4)^0,f,c
  2237   00214C                     u2614:
  2238   00214C  2E05               	decfsz	??_gpio_pin_read_logic^0,f,c
  2239   00214E  EFA4  F010         	goto	u2615
  2240   002152  5009               	movf	(??_gpio_pin_read_logic+4)^0,w,c
  2241   002154  0B01               	andlw	1
  2242   002156  C003  FFD9         	movff	gpio_pin_read_logic@log,fsr2l
  2243   00215A  C004  FFDA         	movff	gpio_pin_read_logic@log+1,fsr2h
  2244   00215E  6EDF               	movwf	indf2,c
  2245   002160                     l3342:
  2246                           
  2247                           ;MCAL_layer/GPIO/hal_gpio.c: 86:      return ret;
  2248   002160  500A               	movf	gpio_pin_read_logic@ret^0,w,c
  2249   002162  0012               	return		;funcret
  2250   002164                     __end_of_gpio_pin_read_logic:
  2251                           	callstack 0
  2252                           
  2253 ;; *************** function _convert_int_to_string *****************
  2254 ;; Defined at:
  2255 ;;		line 468 in file "ECU_layer/Char_lCD/ecu_chr_lcd.c"
  2256 ;; Parameters:    Size  Location     Type
  2257 ;;  value           2   82[COMRAM] unsigned int 
  2258 ;;  str             2   84[COMRAM] PTR unsigned char 
  2259 ;;		 -> a(11), 
  2260 ;; Auto vars:     Size  Location     Type
  2261 ;;  ret             1   86[COMRAM] unsigned char 
  2262 ;; Return value:  Size  Location     Type
  2263 ;;                  1    wreg      unsigned char 
  2264 ;; Registers used:
  2265 ;;		wreg, fsr1l, fsr1h, fsr2l, fsr2h, status,2, status,0, tblptrl, tblptrh, tblptru, cstack
  2266 ;; Tracked objects:
  2267 ;;		On entry : 0/0
  2268 ;;		On exit  : 0/0
  2269 ;;		Unchanged: 0/0
  2270 ;; Data sizes:     COMRAM   BANK0   BANK1   BANK2   BANK3   BANK4   BANK5   BANK6   BANK7   BANK8   BANK9  BANK10  BANK1
      +1  BANK12  BANK13  BANK14  BANK15
  2271 ;;      Params:         4       0       0       0       0       0       0       0       0       0       0       0       
      +0       0       0       0       0
  2272 ;;      Locals:         1       0       0       0       0       0       0       0       0       0       0       0       
      +0       0       0       0       0
  2273 ;;      Temps:          0       0       0       0       0       0       0       0       0       0       0       0       
      +0       0       0       0       0
  2274 ;;      Totals:         5       0       0       0       0       0       0       0       0       0       0       0       
      +0       0       0       0       0
  2275 ;;Total ram usage:        5 bytes
  2276 ;; Hardware stack levels used: 1
  2277 ;; Hardware stack levels required when called: 8
  2278 ;; This function calls:
  2279 ;;		_memset
  2280 ;;		_sprintf
  2281 ;; This function is called by:
  2282 ;;		_main
  2283 ;; This function uses a non-reentrant model
  2284 ;;
  2285                           
  2286                           	psect	text7
  2287   00262C                     __ptext7:
  2288                           	callstack 0
  2289   00262C                     _convert_int_to_string:
  2290                           	callstack 22
  2291   00262C                     
  2292                           ;ECU_layer/Char_lCD/ecu_chr_lcd.c: 468: Std_ReturnType convert_int_to_string(uint32 valu
      +                          e,uint8 *str);ECU_layer/Char_lCD/ecu_chr_lcd.c: 469: {;ECU_layer/Char_lCD/ecu_chr_lcd.c:
      +                           470:     Std_ReturnType ret = (Std_ReturnType)0x01;
  2293   00262C  0E01               	movlw	1
  2294   00262E  6E57               	movwf	convert_int_to_string@ret^0,c
  2295   002630                     
  2296                           ;ECU_layer/Char_lCD/ecu_chr_lcd.c: 471:     if(str == ((void*)0))
  2297   002630  5055               	movf	convert_int_to_string@str^0,w,c
  2298   002632  1056               	iorwf	(convert_int_to_string@str+1)^0,w,c
  2299   002634  A4D8               	btfss	status,2,c
  2300   002636  EF1F  F013         	goto	u2761
  2301   00263A  EF21  F013         	goto	u2760
  2302   00263E                     u2761:
  2303   00263E  EF25  F013         	goto	l3464
  2304   002642                     u2760:
  2305   002642                     
  2306                           ;ECU_layer/Char_lCD/ecu_chr_lcd.c: 472:     {;ECU_layer/Char_lCD/ecu_chr_lcd.c: 473:    
      +                               ret = (Std_ReturnType)0x00;
  2307   002642  0E00               	movlw	0
  2308   002644  6E57               	movwf	convert_int_to_string@ret^0,c
  2309                           
  2310                           ;ECU_layer/Char_lCD/ecu_chr_lcd.c: 474:     }
  2311   002646  EF41  F013         	goto	l3468
  2312   00264A                     l3464:
  2313                           
  2314                           ;ECU_layer/Char_lCD/ecu_chr_lcd.c: 476:     {;ECU_layer/Char_lCD/ecu_chr_lcd.c: 478:    
      +                               memset(str,'\0',11);
  2315   00264A  C055  F001         	movff	convert_int_to_string@str,memset@dest
  2316   00264E  C056  F002         	movff	convert_int_to_string@str+1,memset@dest+1
  2317   002652  0E00               	movlw	0
  2318   002654  6E04               	movwf	(memset@c+1)^0,c
  2319   002656  0E00               	movlw	0
  2320   002658  6E03               	movwf	memset@c^0,c
  2321   00265A  0E00               	movlw	0
  2322   00265C  6E06               	movwf	(memset@n+1)^0,c
  2323   00265E  0E0B               	movlw	11
  2324   002660  6E05               	movwf	memset@n^0,c
  2325   002662  ECE8  F00A         	call	_memset	;wreg free
  2326   002666                     
  2327                           ;ECU_layer/Char_lCD/ecu_chr_lcd.c: 479:         sprintf(str,"%i",value);
  2328   002666  C055  F03F         	movff	convert_int_to_string@str,sprintf@s
  2329   00266A  C056  F040         	movff	convert_int_to_string@str+1,sprintf@s+1
  2330   00266E  0E31               	movlw	low STR_1
  2331   002670  6E41               	movwf	sprintf@fmt^0,c
  2332   002672  0E10               	movlw	high STR_1
  2333   002674  6E42               	movwf	(sprintf@fmt+1)^0,c
  2334   002676  C053  F043         	movff	convert_int_to_string@value,?_sprintf+4
  2335   00267A  C054  F044         	movff	convert_int_to_string@value+1,?_sprintf+5
  2336   00267E  EC91  F013         	call	_sprintf	;wreg free
  2337   002682                     l3468:
  2338                           
  2339                           ;ECU_layer/Char_lCD/ecu_chr_lcd.c: 481:     return ret;
  2340   002682  5057               	movf	convert_int_to_string@ret^0,w,c
  2341   002684  0012               	return		;funcret
  2342   002686                     __end_of_convert_int_to_string:
  2343                           	callstack 0
  2344                           
  2345 ;; *************** function _sprintf *****************
  2346 ;; Defined at:
  2347 ;;		line 9 in file "C:\Program Files\Microchip\xc8\v2.41\pic\sources\c99\common\nf_sprintf.c"
  2348 ;; Parameters:    Size  Location     Type
  2349 ;;  s               2   62[COMRAM] PTR unsigned char 
  2350 ;;		 -> a(11), 
  2351 ;;  fmt             2   64[COMRAM] PTR const unsigned char 
  2352 ;;		 -> STR_3(3), STR_2(3), STR_1(3), 
  2353 ;; Auto vars:     Size  Location     Type
  2354 ;;  f              12   70[COMRAM] struct _IO_FILE
  2355 ;;  ap              2   68[COMRAM] PTR void [1]
  2356 ;;		 -> ?_sprintf(2), 
  2357 ;;  ret             2    0        int 
  2358 ;; Return value:  Size  Location     Type
  2359 ;;                  2   62[COMRAM] int 
  2360 ;; Registers used:
  2361 ;;		wreg, fsr1l, fsr1h, fsr2l, fsr2h, status,2, status,0, tblptrl, tblptrh, tblptru, cstack
  2362 ;; Tracked objects:
  2363 ;;		On entry : 0/0
  2364 ;;		On exit  : 0/0
  2365 ;;		Unchanged: 0/0
  2366 ;; Data sizes:     COMRAM   BANK0   BANK1   BANK2   BANK3   BANK4   BANK5   BANK6   BANK7   BANK8   BANK9  BANK10  BANK1
      +1  BANK12  BANK13  BANK14  BANK15
  2367 ;;      Params:         6       0       0       0       0       0       0       0       0       0       0       0       
      +0       0       0       0       0
  2368 ;;      Locals:        14       0       0       0       0       0       0       0       0       0       0       0       
      +0       0       0       0       0
  2369 ;;      Temps:          0       0       0       0       0       0       0       0       0       0       0       0       
      +0       0       0       0       0
  2370 ;;      Totals:        20       0       0       0       0       0       0       0       0       0       0       0       
      +0       0       0       0       0
  2371 ;;Total ram usage:       20 bytes
  2372 ;; Hardware stack levels used: 1
  2373 ;; Hardware stack levels required when called: 7
  2374 ;; This function calls:
  2375 ;;		_vfprintf
  2376 ;; This function is called by:
  2377 ;;		_convert_int_to_string
  2378 ;;		_convert_byte_to_string
  2379 ;;		_convert_short_to_string
  2380 ;; This function uses a non-reentrant model
  2381 ;;
  2382                           
  2383                           	psect	text8
  2384   002722                     __ptext8:
  2385                           	callstack 0
  2386   002722                     _sprintf:
  2387                           	callstack 22
  2388   002722  0E43               	movlw	low (?_sprintf+4)
  2389   002724  6E45               	movwf	sprintf@ap^0,c
  2390   002726  0E00               	movlw	high (?_sprintf+4)
  2391   002728  6E46               	movwf	(sprintf@ap+1)^0,c
  2392   00272A  C03F  F047         	movff	sprintf@s,sprintf@f
  2393   00272E  C040  F048         	movff	sprintf@s+1,sprintf@f+1
  2394   002732  0E00               	movlw	0
  2395   002734  6E4B               	movwf	(sprintf@f+4)^0,c
  2396   002736  0E00               	movlw	0
  2397   002738  6E4A               	movwf	(sprintf@f+3)^0,c
  2398   00273A  0E00               	movlw	0
  2399   00273C  6E52               	movwf	(sprintf@f+11)^0,c
  2400   00273E  0E00               	movlw	0
  2401   002740  6E51               	movwf	(sprintf@f+10)^0,c
  2402   002742  0E47               	movlw	low sprintf@f
  2403   002744  6E37               	movwf	vfprintf@fp^0,c
  2404   002746  0E00               	movlw	high sprintf@f
  2405   002748  6E38               	movwf	(vfprintf@fp+1)^0,c
  2406   00274A  C041  F039         	movff	sprintf@fmt,vfprintf@fmt
  2407   00274E  C042  F03A         	movff	sprintf@fmt+1,vfprintf@fmt+1
  2408   002752  0E45               	movlw	low sprintf@ap
  2409   002754  6E3B               	movwf	vfprintf@ap^0,c
  2410   002756  0E00               	movlw	high sprintf@ap
  2411   002758  6E3C               	movwf	(vfprintf@ap+1)^0,c
  2412   00275A  EC43  F013         	call	_vfprintf	;wreg free
  2413   00275E  504A               	movf	(sprintf@f+3)^0,w,c
  2414   002760  243F               	addwf	sprintf@s^0,w,c
  2415   002762  6ED9               	movwf	fsr2l,c
  2416   002764  504B               	movf	(sprintf@f+4)^0,w,c
  2417   002766  2040               	addwfc	(sprintf@s+1)^0,w,c
  2418   002768  6EDA               	movwf	fsr2h,c
  2419   00276A  6ADF               	clrf	indf2,c
  2420   00276C  0012               	return		;funcret
  2421   00276E                     __end_of_sprintf:
  2422                           	callstack 0
  2423                           
  2424 ;; *************** function _vfprintf *****************
  2425 ;; Defined at:
  2426 ;;		line 1546 in file "C:\Program Files\Microchip\xc8\v2.41\pic\sources\c99\common\doprnt.c"
  2427 ;; Parameters:    Size  Location     Type
  2428 ;;  fp              2   54[COMRAM] PTR struct _IO_FILE
  2429 ;;		 -> sprintf@f(12), 
  2430 ;;  fmt             2   56[COMRAM] PTR const unsigned char 
  2431 ;;		 -> STR_3(3), STR_2(3), STR_1(3), 
  2432 ;;  ap              2   58[COMRAM] PTR PTR void 
  2433 ;;		 -> sprintf@ap(2), 
  2434 ;; Auto vars:     Size  Location     Type
  2435 ;;  cfmt            2   60[COMRAM] PTR unsigned char 
  2436 ;;		 -> STR_3(3), STR_2(3), STR_1(3), 
  2437 ;; Return value:  Size  Location     Type
  2438 ;;                  2   54[COMRAM] int 
  2439 ;; Registers used:
  2440 ;;		wreg, fsr1l, fsr1h, fsr2l, fsr2h, status,2, status,0, tblptrl, tblptrh, tblptru, cstack
  2441 ;; Tracked objects:
  2442 ;;		On entry : 0/0
  2443 ;;		On exit  : 0/0
  2444 ;;		Unchanged: 0/0
  2445 ;; Data sizes:     COMRAM   BANK0   BANK1   BANK2   BANK3   BANK4   BANK5   BANK6   BANK7   BANK8   BANK9  BANK10  BANK1
      +1  BANK12  BANK13  BANK14  BANK15
  2446 ;;      Params:         6       0       0       0       0       0       0       0       0       0       0       0       
      +0       0       0       0       0
  2447 ;;      Locals:         2       0       0       0       0       0       0       0       0       0       0       0       
      +0       0       0       0       0
  2448 ;;      Temps:          0       0       0       0       0       0       0       0       0       0       0       0       
      +0       0       0       0       0
  2449 ;;      Totals:         8       0       0       0       0       0       0       0       0       0       0       0       
      +0       0       0       0       0
  2450 ;;Total ram usage:        8 bytes
  2451 ;; Hardware stack levels used: 1
  2452 ;; Hardware stack levels required when called: 6
  2453 ;; This function calls:
  2454 ;;		_vfpfcnvrt
  2455 ;; This function is called by:
  2456 ;;		_sprintf
  2457 ;; This function uses a non-reentrant model
  2458 ;;
  2459                           
  2460                           	psect	text9
  2461   002686                     __ptext9:
  2462                           	callstack 0
  2463   002686                     _vfprintf:
  2464                           	callstack 22
  2465   002686                     
  2466                           ;C:\Program Files\Microchip\xc8\v2.41\pic\sources\c99\common\doprnt.c: 1546: int vfprint
      +                          f(FILE *fp, const char *fmt, va_list ap);C:\Program Files\Microchip\xc8\v2.41\pic\source
      +                          s\c99\common\doprnt.c: 1547: {;C:\Program Files\Microchip\xc8\v2.41\pic\sources\c99\comm
      +                          on\doprnt.c: 1549:     char *cfmt;;C:\Program Files\Microchip\xc8\v2.41\pic\sources\c99\
      +                          common\doprnt.c: 1551:     cfmt = (char *)fmt;
  2467   002686  C039  F03D         	movff	vfprintf@fmt,vfprintf@cfmt
  2468   00268A  C03A  F03E         	movff	vfprintf@fmt+1,vfprintf@cfmt+1
  2469                           
  2470                           ;C:\Program Files\Microchip\xc8\v2.41\pic\sources\c99\common\doprnt.c: 1555:     while (
      +                          *cfmt) {
  2471   00268E  EF57  F013         	goto	l3196
  2472   002692                     l3194:
  2473                           
  2474                           ;C:\Program Files\Microchip\xc8\v2.41\pic\sources\c99\common\doprnt.c: 1559:    vfpfcnvr
      +                          t(fp, &cfmt, ap);
  2475   002692  C037  F029         	movff	vfprintf@fp,vfpfcnvrt@fp
  2476   002696  C038  F02A         	movff	vfprintf@fp+1,vfpfcnvrt@fp+1
  2477   00269A  0E3D               	movlw	low vfprintf@cfmt
  2478   00269C  6E2B               	movwf	vfpfcnvrt@fmt^0,c
  2479   00269E  0E00               	movlw	high vfprintf@cfmt
  2480   0026A0  6E2C               	movwf	(vfpfcnvrt@fmt+1)^0,c
  2481   0026A2  C03B  F02D         	movff	vfprintf@ap,vfpfcnvrt@ap
  2482   0026A6  C03C  F02E         	movff	vfprintf@ap+1,vfpfcnvrt@ap+1
  2483   0026AA  EC16  F00E         	call	_vfpfcnvrt	;wreg free
  2484   0026AE                     l3196:
  2485                           
  2486                           ;C:\Program Files\Microchip\xc8\v2.41\pic\sources\c99\common\doprnt.c: 1555:     while (
      +                          *cfmt) {
  2487   0026AE  C03D  FFF6         	movff	vfprintf@cfmt,tblptrl
  2488   0026B2  C03E  FFF7         	movff	vfprintf@cfmt+1,tblptrh
  2489   0026B6                     	if	0	;tblptru may be non-zero
  2490   0026B6                     	endif
  2491   0026B6                     	if	0	;tblptru may be non-zero
  2492   0026B6                     	endif
  2493   0026B6  0008               	tblrd		*
  2494   0026B8  50F5               	movf	tablat,w,c
  2495   0026BA  0900               	iorlw	0
  2496   0026BC  A4D8               	btfss	status,2,c
  2497   0026BE  EF63  F013         	goto	u2421
  2498   0026C2  EF65  F013         	goto	u2420
  2499   0026C6                     u2421:
  2500   0026C6  EF49  F013         	goto	l3194
  2501   0026CA                     u2420:
  2502   0026CA                     
  2503                           ;C:\Program Files\Microchip\xc8\v2.41\pic\sources\c99\common\doprnt.c: 1564:  return 0;
  2504   0026CA  0E00               	movlw	0
  2505   0026CC  6E38               	movwf	(?_vfprintf+1)^0,c
  2506   0026CE  0E00               	movlw	0
  2507   0026D0  6E37               	movwf	?_vfprintf^0,c
  2508   0026D2  0012               	return		;funcret
  2509   0026D4                     __end_of_vfprintf:
  2510                           	callstack 0
  2511                           
  2512 ;; *************** function _vfpfcnvrt *****************
  2513 ;; Defined at:
  2514 ;;		line 1048 in file "C:\Program Files\Microchip\xc8\v2.41\pic\sources\c99\common\doprnt.c"
  2515 ;; Parameters:    Size  Location     Type
  2516 ;;  fp              2   40[COMRAM] PTR struct _IO_FILE
  2517 ;;		 -> sprintf@f(12), 
  2518 ;;  fmt             2   42[COMRAM] PTR PTR unsigned char 
  2519 ;;		 -> vfprintf@cfmt(2), 
  2520 ;;  ap              2   44[COMRAM] PTR PTR void 
  2521 ;;		 -> sprintf@ap(2), 
  2522 ;; Auto vars:     Size  Location     Type
  2523 ;;  convarg         4   48[COMRAM] struct .
  2524 ;;  cp              2   52[COMRAM] PTR unsigned char 
  2525 ;;		 -> STR_3(3), STR_2(3), STR_1(3), 
  2526 ;;  i               2    0        int 
  2527 ;;  done            2    0        int 
  2528 ;;  c               1    0        unsigned char 
  2529 ;; Return value:  Size  Location     Type
  2530 ;;                  1    wreg      void 
  2531 ;; Registers used:
  2532 ;;		wreg, fsr1l, fsr1h, fsr2l, fsr2h, status,2, status,0, tblptrl, tblptrh, tblptru, cstack
  2533 ;; Tracked objects:
  2534 ;;		On entry : 0/0
  2535 ;;		On exit  : 0/0
  2536 ;;		Unchanged: 0/0
  2537 ;; Data sizes:     COMRAM   BANK0   BANK1   BANK2   BANK3   BANK4   BANK5   BANK6   BANK7   BANK8   BANK9  BANK10  BANK1
      +1  BANK12  BANK13  BANK14  BANK15
  2538 ;;      Params:         6       0       0       0       0       0       0       0       0       0       0       0       
      +0       0       0       0       0
  2539 ;;      Locals:         6       0       0       0       0       0       0       0       0       0       0       0       
      +0       0       0       0       0
  2540 ;;      Temps:          2       0       0       0       0       0       0       0       0       0       0       0       
      +0       0       0       0       0
  2541 ;;      Totals:        14       0       0       0       0       0       0       0       0       0       0       0       
      +0       0       0       0       0
  2542 ;;Total ram usage:       14 bytes
  2543 ;; Hardware stack levels used: 1
  2544 ;; Hardware stack levels required when called: 5
  2545 ;; This function calls:
  2546 ;;		_dtoa
  2547 ;;		_fputc
  2548 ;; This function is called by:
  2549 ;;		_vfprintf
  2550 ;; This function uses a non-reentrant model
  2551 ;;
  2552                           
  2553                           	psect	text10
  2554   001C2C                     __ptext10:
  2555                           	callstack 0
  2556   001C2C                     _vfpfcnvrt:
  2557                           	callstack 22
  2558   001C2C                     
  2559                           ;C:\Program Files\Microchip\xc8\v2.41\pic\sources\c99\common\doprnt.c: 1048: vfpfcnvrt(F
      +                          ILE *fp, char *fmt[], va_list ap);C:\Program Files\Microchip\xc8\v2.41\pic\sources\c99\c
      +                          ommon\doprnt.c: 1049: {;C:\Program Files\Microchip\xc8\v2.41\pic\sources\c99\common\dopr
      +                          nt.c: 1050:     char c, *cp;;C:\Program Files\Microchip\xc8\v2.41\pic\sources\c99\common
      +                          \doprnt.c: 1051:     int done, i;;C:\Program Files\Microchip\xc8\v2.41\pic\sources\c99\c
      +                          ommon\doprnt.c: 1059:  } convarg;;C:\Program Files\Microchip\xc8\v2.41\pic\sources\c99\c
      +                          ommon\doprnt.c: 1062:     if ((*fmt)[0] == '%') {
  2560   001C2C  C02B  FFD9         	movff	vfpfcnvrt@fmt,fsr2l
  2561   001C30  C02C  FFDA         	movff	vfpfcnvrt@fmt+1,fsr2h
  2562   001C34  CFDE FFF6          	movff	postinc2,tblptrl
  2563   001C38  CFDD FFF7          	movff	postdec2,tblptrh
  2564   001C3C                     	if	0	;tblptru may be non-zero
  2565   001C3C                     	endif
  2566   001C3C                     	if	0	;tblptru may be non-zero
  2567   001C3C                     	endif
  2568   001C3C  0008               	tblrd		*
  2569   001C3E  50F5               	movf	tablat,w,c
  2570   001C40  0A25               	xorlw	37
  2571   001C42  A4D8               	btfss	status,2,c
  2572   001C44  EF26  F00E         	goto	u2331
  2573   001C48  EF28  F00E         	goto	u2330
  2574   001C4C                     u2331:
  2575   001C4C  EF92  F00E         	goto	l3094
  2576   001C50                     u2330:
  2577   001C50                     
  2578                           ;C:\Program Files\Microchip\xc8\v2.41\pic\sources\c99\common\doprnt.c: 1063:         ++*
      +                          fmt;
  2579   001C50  C02B  FFD9         	movff	vfpfcnvrt@fmt,fsr2l
  2580   001C54  C02C  FFDA         	movff	vfpfcnvrt@fmt+1,fsr2h
  2581   001C58  2ADE               	incf	postinc2,f,c
  2582   001C5A  0E00               	movlw	0
  2583   001C5C  22DD               	addwfc	postdec2,f,c
  2584   001C5E                     
  2585                           ;C:\Program Files\Microchip\xc8\v2.41\pic\sources\c99\common\doprnt.c: 1065:         fla
      +                          gs = width = 0;
  2586   001C5E  0E00               	movlw	0
  2587   001C60  6E5B               	movwf	(_width+1)^0,c
  2588   001C62  0E00               	movlw	0
  2589   001C64  6E5A               	movwf	_width^0,c
  2590   001C66  C05A  F064         	movff	_width,_flags
  2591   001C6A                     
  2592                           ;C:\Program Files\Microchip\xc8\v2.41\pic\sources\c99\common\doprnt.c: 1066:         pre
      +                          c = -1;
  2593   001C6A  685C               	setf	_prec^0,c
  2594   001C6C  685D               	setf	(_prec+1)^0,c
  2595   001C6E                     
  2596                           ;C:\Program Files\Microchip\xc8\v2.41\pic\sources\c99\common\doprnt.c: 1143:   cp = *fmt
      +                          ;
  2597   001C6E  C02B  FFD9         	movff	vfpfcnvrt@fmt,fsr2l
  2598   001C72  C02C  FFDA         	movff	vfpfcnvrt@fmt+1,fsr2h
  2599   001C76  CFDE F035          	movff	postinc2,vfpfcnvrt@cp
  2600   001C7A  CFDD F036          	movff	postdec2,vfpfcnvrt@cp+1
  2601   001C7E                     
  2602                           ;C:\Program Files\Microchip\xc8\v2.41\pic\sources\c99\common\doprnt.c: 1213:   if (*cp =
      +                          = 'd' || *cp == 'i') {
  2603   001C7E  C035  FFF6         	movff	vfpfcnvrt@cp,tblptrl
  2604   001C82  C036  FFF7         	movff	vfpfcnvrt@cp+1,tblptrh
  2605   001C86                     	if	0	;tblptru may be non-zero
  2606   001C86                     	endif
  2607   001C86                     	if	0	;tblptru may be non-zero
  2608   001C86                     	endif
  2609   001C86  0008               	tblrd		*
  2610   001C88  50F5               	movf	tablat,w,c
  2611   001C8A  0A64               	xorlw	100
  2612   001C8C  B4D8               	btfsc	status,2,c
  2613   001C8E  EF4B  F00E         	goto	u2341
  2614   001C92  EF4D  F00E         	goto	u2340
  2615   001C96                     u2341:
  2616   001C96  EF5B  F00E         	goto	l3084
  2617   001C9A                     u2340:
  2618   001C9A  C035  FFF6         	movff	vfpfcnvrt@cp,tblptrl
  2619   001C9E  C036  FFF7         	movff	vfpfcnvrt@cp+1,tblptrh
  2620   001CA2                     	if	0	;tblptru may be non-zero
  2621   001CA2                     	endif
  2622   001CA2                     	if	0	;tblptru may be non-zero
  2623   001CA2                     	endif
  2624   001CA2  0008               	tblrd		*
  2625   001CA4  50F5               	movf	tablat,w,c
  2626   001CA6  0A69               	xorlw	105
  2627   001CA8  A4D8               	btfss	status,2,c
  2628   001CAA  EF59  F00E         	goto	u2351
  2629   001CAE  EF5B  F00E         	goto	u2350
  2630   001CB2                     u2351:
  2631   001CB2  EF89  F00E         	goto	l3090
  2632   001CB6                     u2350:
  2633   001CB6                     l3084:
  2634                           
  2635                           ;C:\Program Files\Microchip\xc8\v2.41\pic\sources\c99\common\doprnt.c: 1256:    convarg.
      +                          sint = (vfpf_sint_t)(int)(*(int *)__va_arg(*(int **)ap, (int)0));
  2636   001CB6  C02D  FFD9         	movff	vfpfcnvrt@ap,fsr2l
  2637   001CBA  C02E  FFDA         	movff	vfpfcnvrt@ap+1,fsr2h
  2638   001CBE  CFDF F02F          	movff	indf2,??_vfpfcnvrt
  2639   001CC2  0E02               	movlw	2
  2640   001CC4  26DE               	addwf	postinc2,f,c
  2641   001CC6  CFDF F030          	movff	indf2,??_vfpfcnvrt+1
  2642   001CCA  0E00               	movlw	0
  2643   001CCC  22DD               	addwfc	postdec2,f,c
  2644   001CCE  C02F  FFD9         	movff	??_vfpfcnvrt,fsr2l
  2645   001CD2  C030  FFDA         	movff	??_vfpfcnvrt+1,fsr2h
  2646   001CD6  CFDE F031          	movff	postinc2,vfpfcnvrt@convarg
  2647   001CDA  CFDD F032          	movff	postdec2,vfpfcnvrt@convarg+1
  2648                           
  2649                           ;C:\Program Files\Microchip\xc8\v2.41\pic\sources\c99\common\doprnt.c: 1258:    *fmt = c
      +                          p+1;
  2650   001CDE  0E01               	movlw	1
  2651   001CE0  2435               	addwf	vfpfcnvrt@cp^0,w,c
  2652   001CE2  6E2F               	movwf	??_vfpfcnvrt^0,c
  2653   001CE4  0E00               	movlw	0
  2654   001CE6  2036               	addwfc	(vfpfcnvrt@cp+1)^0,w,c
  2655   001CE8  6E30               	movwf	(??_vfpfcnvrt+1)^0,c
  2656   001CEA  C02B  FFD9         	movff	vfpfcnvrt@fmt,fsr2l
  2657   001CEE  C02C  FFDA         	movff	vfpfcnvrt@fmt+1,fsr2h
  2658   001CF2  C02F  FFDE         	movff	??_vfpfcnvrt,postinc2
  2659   001CF6  C030  FFDD         	movff	??_vfpfcnvrt+1,postdec2
  2660   001CFA                     
  2661                           ;C:\Program Files\Microchip\xc8\v2.41\pic\sources\c99\common\doprnt.c: 1259:    return (
      +                          void) dtoa(fp, convarg.sint);;	Return value of _vfpfcnvrt is never used
  2662   001CFA  C029  F01C         	movff	vfpfcnvrt@fp,dtoa@fp
  2663   001CFE  C02A  F01D         	movff	vfpfcnvrt@fp+1,dtoa@fp+1
  2664   001D02  C031  F01E         	movff	vfpfcnvrt@convarg,dtoa@d
  2665   001D06  C032  F01F         	movff	vfpfcnvrt@convarg+1,dtoa@d+1
  2666   001D0A  EC1E  F00A         	call	_dtoa	;wreg free
  2667   001D0E  EFA6  F00E         	goto	l1348
  2668   001D12                     l3090:
  2669                           
  2670                           ;C:\Program Files\Microchip\xc8\v2.41\pic\sources\c99\common\doprnt.c: 1535:         ++*
      +                          fmt;
  2671   001D12  C02B  FFD9         	movff	vfpfcnvrt@fmt,fsr2l
  2672   001D16  C02C  FFDA         	movff	vfpfcnvrt@fmt+1,fsr2h
  2673   001D1A  2ADE               	incf	postinc2,f,c
  2674   001D1C  0E00               	movlw	0
  2675   001D1E  22DD               	addwfc	postdec2,f,c
  2676   001D20  EFA6  F00E         	goto	l1348
  2677   001D24                     l3094:
  2678                           
  2679                           ;C:\Program Files\Microchip\xc8\v2.41\pic\sources\c99\common\doprnt.c: 1540:     fputc((
      +                          int)(*fmt)[0], fp);
  2680   001D24  C02B  FFD9         	movff	vfpfcnvrt@fmt,fsr2l
  2681   001D28  C02C  FFDA         	movff	vfpfcnvrt@fmt+1,fsr2h
  2682   001D2C  CFDE FFF6          	movff	postinc2,tblptrl
  2683   001D30  CFDD FFF7          	movff	postdec2,tblptrh
  2684   001D34                     	if	0	;tblptru may be non-zero
  2685   001D34                     	endif
  2686   001D34                     	if	0	;tblptru may be non-zero
  2687   001D34                     	endif
  2688   001D34  0008               	tblrd		*
  2689   001D36  50F5               	movf	tablat,w,c
  2690   001D38  6E01               	movwf	fputc@c^0,c
  2691   001D3A  6A02               	clrf	(fputc@c+1)^0,c
  2692   001D3C  C029  F003         	movff	vfpfcnvrt@fp,fputc@fp
  2693   001D40  C02A  F004         	movff	vfpfcnvrt@fp+1,fputc@fp+1
  2694   001D44  EC2E  F00F         	call	_fputc	;wreg free
  2695   001D48  EF89  F00E         	goto	l3090
  2696   001D4C                     l1348:
  2697   001D4C  0012               	return		;funcret
  2698   001D4E                     __end_of_vfpfcnvrt:
  2699                           	callstack 0
  2700                           
  2701 ;; *************** function _dtoa *****************
  2702 ;; Defined at:
  2703 ;;		line 470 in file "C:\Program Files\Microchip\xc8\v2.41\pic\sources\c99\common\doprnt.c"
  2704 ;; Parameters:    Size  Location     Type
  2705 ;;  fp              2   27[COMRAM] PTR struct _IO_FILE
  2706 ;;		 -> sprintf@f(12), 
  2707 ;;  d               2   29[COMRAM] int 
  2708 ;; Auto vars:     Size  Location     Type
  2709 ;;  i               2   37[COMRAM] int 
  2710 ;;  w               2   35[COMRAM] int 
  2711 ;;  p               2   33[COMRAM] int 
  2712 ;;  s               1   39[COMRAM] unsigned char 
  2713 ;; Return value:  Size  Location     Type
  2714 ;;                  1    wreg      void 
  2715 ;; Registers used:
  2716 ;;		wreg, fsr1l, fsr1h, fsr2l, fsr2h, status,2, status,0, cstack
  2717 ;; Tracked objects:
  2718 ;;		On entry : 0/0
  2719 ;;		On exit  : 0/0
  2720 ;;		Unchanged: 0/0
  2721 ;; Data sizes:     COMRAM   BANK0   BANK1   BANK2   BANK3   BANK4   BANK5   BANK6   BANK7   BANK8   BANK9  BANK10  BANK1
      +1  BANK12  BANK13  BANK14  BANK15
  2722 ;;      Params:         4       0       0       0       0       0       0       0       0       0       0       0       
      +0       0       0       0       0
  2723 ;;      Locals:         9       0       0       0       0       0       0       0       0       0       0       0       
      +0       0       0       0       0
  2724 ;;      Temps:          0       0       0       0       0       0       0       0       0       0       0       0       
      +0       0       0       0       0
  2725 ;;      Totals:        13       0       0       0       0       0       0       0       0       0       0       0       
      +0       0       0       0       0
  2726 ;;Total ram usage:       13 bytes
  2727 ;; Hardware stack levels used: 1
  2728 ;; Hardware stack levels required when called: 4
  2729 ;; This function calls:
  2730 ;;		___awdiv
  2731 ;;		___awmod
  2732 ;;		_abs
  2733 ;;		_pad
  2734 ;; This function is called by:
  2735 ;;		_vfpfcnvrt
  2736 ;; This function uses a non-reentrant model
  2737 ;;
  2738                           
  2739                           	psect	text11
  2740   00143C                     __ptext11:
  2741                           	callstack 0
  2742   00143C                     _dtoa:
  2743                           	callstack 22
  2744   00143C                     
  2745                           ;C:\Program Files\Microchip\xc8\v2.41\pic\sources\c99\common\doprnt.c: 470: static void 
      +                          dtoa(FILE *fp, vfpf_sint_t d);C:\Program Files\Microchip\xc8\v2.41\pic\sources\c99\commo
      +                          n\doprnt.c: 471: {;C:\Program Files\Microchip\xc8\v2.41\pic\sources\c99\common\doprnt.c:
      +                           472:  char s;;C:\Program Files\Microchip\xc8\v2.41\pic\sources\c99\common\doprnt.c: 473
      +                          :     int i, p, w;;C:\Program Files\Microchip\xc8\v2.41\pic\sources\c99\common\doprnt.c:
      +                           476:     s = d < 0 ? 1 : 0;
  2746   00143C  BE1F               	btfsc	(dtoa@d+1)^0,7,c
  2747   00143E  EF23  F00A         	goto	u2201
  2748   001442  EF26  F00A         	goto	u2200
  2749   001446                     u2201:
  2750   001446  0E01               	movlw	1
  2751   001448  EF27  F00A         	goto	u2210
  2752   00144C                     u2200:
  2753   00144C  0E00               	movlw	0
  2754   00144E                     u2210:
  2755   00144E  6E28               	movwf	dtoa@s^0,c
  2756   001450                     
  2757                           ;C:\Program Files\Microchip\xc8\v2.41\pic\sources\c99\common\doprnt.c: 477:     if (s) {
  2758   001450  5028               	movf	dtoa@s^0,w,c
  2759   001452  B4D8               	btfsc	status,2,c
  2760   001454  EF2E  F00A         	goto	u2221
  2761   001458  EF30  F00A         	goto	u2220
  2762   00145C                     u2221:
  2763   00145C  EF34  F00A         	goto	l3000
  2764   001460                     u2220:
  2765   001460                     
  2766                           ;C:\Program Files\Microchip\xc8\v2.41\pic\sources\c99\common\doprnt.c: 478:         d = 
      +                          -d;
  2767   001460  6C1E               	negf	dtoa@d^0,c
  2768   001462  1E1F               	comf	(dtoa@d+1)^0,f,c
  2769   001464  B0D8               	btfsc	status,0,c
  2770   001466  2A1F               	incf	(dtoa@d+1)^0,f,c
  2771   001468                     l3000:
  2772                           
  2773                           ;C:\Program Files\Microchip\xc8\v2.41\pic\sources\c99\common\doprnt.c: 487:     p = (0 <
      +                          = prec) ? prec : 1;
  2774   001468  BE5D               	btfsc	(_prec+1)^0,7,c
  2775   00146A  EF3B  F00A         	goto	u2230
  2776   00146E  EF39  F00A         	goto	u2231
  2777   001472                     u2231:
  2778   001472  EF41  F00A         	goto	l1327
  2779   001476                     u2230:
  2780   001476  0E00               	movlw	0
  2781   001478  6E23               	movwf	(dtoa@p+1)^0,c
  2782   00147A  0E01               	movlw	1
  2783   00147C  6E22               	movwf	dtoa@p^0,c
  2784   00147E  EF45  F00A         	goto	l1329
  2785   001482                     l1327:
  2786   001482  C05C  F022         	movff	_prec,dtoa@p
  2787   001486  C05D  F023         	movff	_prec+1,dtoa@p+1
  2788   00148A                     l1329:
  2789                           
  2790                           ;C:\Program Files\Microchip\xc8\v2.41\pic\sources\c99\common\doprnt.c: 488:     w = widt
      +                          h;
  2791   00148A  C05A  F024         	movff	_width,dtoa@w
  2792   00148E  C05B  F025         	movff	_width+1,dtoa@w+1
  2793   001492                     
  2794                           ;C:\Program Files\Microchip\xc8\v2.41\pic\sources\c99\common\doprnt.c: 489:     if (s
  2795   001492  5028               	movf	dtoa@s^0,w,c
  2796   001494  B4D8               	btfsc	status,2,c
  2797   001496  EF4F  F00A         	goto	u2241
  2798   00149A  EF51  F00A         	goto	u2240
  2799   00149E                     u2241:
  2800   00149E  EF68  F00A         	goto	l1330
  2801   0014A2                     u2240:
  2802   0014A2                     
  2803                           ;C:\Program Files\Microchip\xc8\v2.41\pic\sources\c99\common\doprnt.c: 493:     ) {;C:\P
      +                          rogram Files\Microchip\xc8\v2.41\pic\sources\c99\common\doprnt.c: 494:         --w;
  2804   0014A2  0624               	decf	dtoa@w^0,f,c
  2805   0014A4  A0D8               	btfss	status,0,c
  2806   0014A6  0625               	decf	(dtoa@w+1)^0,f,c
  2807   0014A8                     
  2808                           ;C:\Program Files\Microchip\xc8\v2.41\pic\sources\c99\common\doprnt.c: 495:   s = s ? '-
      +                          ' : '+';
  2809   0014A8  5028               	movf	dtoa@s^0,w,c
  2810   0014AA  A4D8               	btfss	status,2,c
  2811   0014AC  EF5A  F00A         	goto	u2251
  2812   0014B0  EF5C  F00A         	goto	u2250
  2813   0014B4                     u2251:
  2814   0014B4  EF62  F00A         	goto	l3012
  2815   0014B8                     u2250:
  2816   0014B8  0E00               	movlw	0
  2817   0014BA  6E21               	movwf	(_dtoa$1424+1)^0,c
  2818   0014BC  0E2B               	movlw	43
  2819   0014BE  6E20               	movwf	_dtoa$1424^0,c
  2820   0014C0  EF66  F00A         	goto	l3014
  2821   0014C4                     l3012:
  2822   0014C4  0E00               	movlw	0
  2823   0014C6  6E21               	movwf	(_dtoa$1424+1)^0,c
  2824   0014C8  0E2D               	movlw	45
  2825   0014CA  6E20               	movwf	_dtoa$1424^0,c
  2826   0014CC                     l3014:
  2827   0014CC  C020  F028         	movff	_dtoa$1424,dtoa@s
  2828   0014D0                     l1330:
  2829                           
  2830                           ;C:\Program Files\Microchip\xc8\v2.41\pic\sources\c99\common\doprnt.c: 505:     i = size
      +                          of(dbuf) - 1;
  2831   0014D0  0E00               	movlw	0
  2832   0014D2  6E27               	movwf	(dtoa@i+1)^0,c
  2833   0014D4  0E1F               	movlw	31
  2834   0014D6  6E26               	movwf	dtoa@i^0,c
  2835   0014D8                     
  2836                           ;C:\Program Files\Microchip\xc8\v2.41\pic\sources\c99\common\doprnt.c: 506:     dbuf[i] 
      +                          = '\0';
  2837   0014D8  0E00               	movlw	0
  2838   0014DA  0100               	movlb	0	; () banked
  2839   0014DC  6F9F               	movwf	(_dbuf+31)& (0+255),b
  2840                           
  2841                           ;C:\Program Files\Microchip\xc8\v2.41\pic\sources\c99\common\doprnt.c: 507:     while (!
      +                          (i < 1) && (d || (0 < p)
  2842   0014DE  EFA1  F00A         	goto	l3028
  2843   0014E2                     l3018:
  2844                           
  2845                           ;C:\Program Files\Microchip\xc8\v2.41\pic\sources\c99\common\doprnt.c: 511:     )) {;C:\
      +                          Program Files\Microchip\xc8\v2.41\pic\sources\c99\common\doprnt.c: 512:         --i;
  2846   0014E2  0626               	decf	dtoa@i^0,f,c
  2847   0014E4  A0D8               	btfss	status,0,c
  2848   0014E6  0627               	decf	(dtoa@i+1)^0,f,c
  2849   0014E8                     
  2850                           ;C:\Program Files\Microchip\xc8\v2.41\pic\sources\c99\common\doprnt.c: 513:         dbuf
      +                          [i] = (char)((int)'0' + abs(d % 10));
  2851   0014E8  0E80               	movlw	low _dbuf
  2852   0014EA  2426               	addwf	dtoa@i^0,w,c
  2853   0014EC  6ED9               	movwf	fsr2l,c
  2854   0014EE  0E00               	movlw	high _dbuf
  2855   0014F0  2027               	addwfc	(dtoa@i+1)^0,w,c
  2856   0014F2  6EDA               	movwf	fsr2h,c
  2857   0014F4  C01E  F001         	movff	dtoa@d,___awmod@dividend
  2858   0014F8  C01F  F002         	movff	dtoa@d+1,___awmod@dividend+1
  2859   0014FC  0E00               	movlw	0
  2860   0014FE  6E04               	movwf	(___awmod@divisor+1)^0,c
  2861   001500  0E0A               	movlw	10
  2862   001502  6E03               	movwf	___awmod@divisor^0,c
  2863   001504  ECB2  F010         	call	___awmod	;wreg free
  2864   001508  C001  F007         	movff	?___awmod,abs@a
  2865   00150C  C002  F008         	movff	?___awmod+1,abs@a+1
  2866   001510  ECFC  F013         	call	_abs	;wreg free
  2867   001514  5007               	movf	?_abs^0,w,c
  2868   001516  0F30               	addlw	48
  2869   001518  6EDF               	movwf	indf2,c
  2870   00151A                     
  2871                           ;C:\Program Files\Microchip\xc8\v2.41\pic\sources\c99\common\doprnt.c: 514:         --p;
  2872   00151A  0622               	decf	dtoa@p^0,f,c
  2873   00151C  A0D8               	btfss	status,0,c
  2874   00151E  0623               	decf	(dtoa@p+1)^0,f,c
  2875   001520                     
  2876                           ;C:\Program Files\Microchip\xc8\v2.41\pic\sources\c99\common\doprnt.c: 515:         --w;
  2877   001520  0624               	decf	dtoa@w^0,f,c
  2878   001522  A0D8               	btfss	status,0,c
  2879   001524  0625               	decf	(dtoa@w+1)^0,f,c
  2880   001526                     
  2881                           ;C:\Program Files\Microchip\xc8\v2.41\pic\sources\c99\common\doprnt.c: 516:         d = 
      +                          d / 10;
  2882   001526  C01E  F001         	movff	dtoa@d,___awdiv@dividend
  2883   00152A  C01F  F002         	movff	dtoa@d+1,___awdiv@dividend+1
  2884   00152E  0E00               	movlw	0
  2885   001530  6E04               	movwf	(___awdiv@divisor+1)^0,c
  2886   001532  0E0A               	movlw	10
  2887   001534  6E03               	movwf	___awdiv@divisor^0,c
  2888   001536  EC93  F00F         	call	___awdiv	;wreg free
  2889   00153A  C001  F01E         	movff	?___awdiv,dtoa@d
  2890   00153E  C002  F01F         	movff	?___awdiv+1,dtoa@d+1
  2891   001542                     l3028:
  2892                           
  2893                           ;C:\Program Files\Microchip\xc8\v2.41\pic\sources\c99\common\doprnt.c: 507:     while (!
      +                          (i < 1) && (d || (0 < p)
  2894   001542  BE27               	btfsc	(dtoa@i+1)^0,7,c
  2895   001544  EFAC  F00A         	goto	u2261
  2896   001548  5027               	movf	(dtoa@i+1)^0,w,c
  2897   00154A  E108               	bnz	u2260
  2898   00154C  0426               	decf	dtoa@i^0,w,c
  2899   00154E  A0D8               	btfss	status,0,c
  2900   001550  EFAC  F00A         	goto	u2261
  2901   001554  EFAE  F00A         	goto	u2260
  2902   001558                     u2261:
  2903   001558  EFC4  F00A         	goto	l3034
  2904   00155C                     u2260:
  2905   00155C  501E               	movf	dtoa@d^0,w,c
  2906   00155E  101F               	iorwf	(dtoa@d+1)^0,w,c
  2907   001560  A4D8               	btfss	status,2,c
  2908   001562  EFB5  F00A         	goto	u2271
  2909   001566  EFB7  F00A         	goto	u2270
  2910   00156A                     u2271:
  2911   00156A  EF71  F00A         	goto	l3018
  2912   00156E                     u2270:
  2913   00156E  BE23               	btfsc	(dtoa@p+1)^0,7,c
  2914   001570  EFC4  F00A         	goto	u2280
  2915   001574  5023               	movf	(dtoa@p+1)^0,w,c
  2916   001576  E106               	bnz	u2281
  2917   001578  0422               	decf	dtoa@p^0,w,c
  2918   00157A  B0D8               	btfsc	status,0,c
  2919   00157C  EFC2  F00A         	goto	u2281
  2920   001580  EFC4  F00A         	goto	u2280
  2921   001584                     u2281:
  2922   001584  EF71  F00A         	goto	l3018
  2923   001588                     u2280:
  2924   001588                     l3034:
  2925                           
  2926                           ;C:\Program Files\Microchip\xc8\v2.41\pic\sources\c99\common\doprnt.c: 520:     if (s !=
      +                           0) {
  2927   001588  5028               	movf	dtoa@s^0,w,c
  2928   00158A  B4D8               	btfsc	status,2,c
  2929   00158C  EFCA  F00A         	goto	u2291
  2930   001590  EFCC  F00A         	goto	u2290
  2931   001594                     u2291:
  2932   001594  EFD7  F00A         	goto	l3040
  2933   001598                     u2290:
  2934   001598                     
  2935                           ;C:\Program Files\Microchip\xc8\v2.41\pic\sources\c99\common\doprnt.c: 521:         --i;
  2936   001598  0626               	decf	dtoa@i^0,f,c
  2937   00159A  A0D8               	btfss	status,0,c
  2938   00159C  0627               	decf	(dtoa@i+1)^0,f,c
  2939   00159E                     
  2940                           ;C:\Program Files\Microchip\xc8\v2.41\pic\sources\c99\common\doprnt.c: 522:         dbuf
      +                          [i] = s;
  2941   00159E  0E80               	movlw	low _dbuf
  2942   0015A0  2426               	addwf	dtoa@i^0,w,c
  2943   0015A2  6ED9               	movwf	fsr2l,c
  2944   0015A4  0E00               	movlw	high _dbuf
  2945   0015A6  2027               	addwfc	(dtoa@i+1)^0,w,c
  2946   0015A8  6EDA               	movwf	fsr2h,c
  2947   0015AA  C028  FFDF         	movff	dtoa@s,indf2
  2948   0015AE                     l3040:
  2949                           
  2950                           ;C:\Program Files\Microchip\xc8\v2.41\pic\sources\c99\common\doprnt.c: 526:     return (
      +                          void) pad(fp, &dbuf[i], w);
  2951   0015AE  C01C  F011         	movff	dtoa@fp,pad@fp
  2952   0015B2  C01D  F012         	movff	dtoa@fp+1,pad@fp+1
  2953   0015B6  0E80               	movlw	low _dbuf
  2954   0015B8  2426               	addwf	dtoa@i^0,w,c
  2955   0015BA  6E13               	movwf	pad@buf^0,c
  2956   0015BC  0E00               	movlw	high _dbuf
  2957   0015BE  2027               	addwfc	(dtoa@i+1)^0,w,c
  2958   0015C0  6E14               	movwf	(pad@buf+1)^0,c
  2959   0015C2  C024  F015         	movff	dtoa@w,pad@p
  2960   0015C6  C025  F016         	movff	dtoa@w+1,pad@p+1
  2961   0015CA  EC58  F011         	call	_pad	;wreg free
  2962   0015CE  0012               	return		;funcret
  2963   0015D0                     __end_of_dtoa:
  2964                           	callstack 0
  2965                           
  2966 ;; *************** function _pad *****************
  2967 ;; Defined at:
  2968 ;;		line 152 in file "C:\Program Files\Microchip\xc8\v2.41\pic\sources\c99\common\doprnt.c"
  2969 ;; Parameters:    Size  Location     Type
  2970 ;;  fp              2   16[COMRAM] PTR struct _IO_FILE
  2971 ;;		 -> sprintf@f(12), 
  2972 ;;  buf             2   18[COMRAM] PTR unsigned char 
  2973 ;;		 -> dbuf(32), 
  2974 ;;  p               2   20[COMRAM] int 
  2975 ;; Auto vars:     Size  Location     Type
  2976 ;;  w               2   25[COMRAM] int 
  2977 ;;  i               2   23[COMRAM] int 
  2978 ;; Return value:  Size  Location     Type
  2979 ;;                  1    wreg      void 
  2980 ;; Registers used:
  2981 ;;		wreg, fsr1l, fsr1h, fsr2l, fsr2h, status,2, status,0, cstack
  2982 ;; Tracked objects:
  2983 ;;		On entry : 0/0
  2984 ;;		On exit  : 0/0
  2985 ;;		Unchanged: 0/0
  2986 ;; Data sizes:     COMRAM   BANK0   BANK1   BANK2   BANK3   BANK4   BANK5   BANK6   BANK7   BANK8   BANK9  BANK10  BANK1
      +1  BANK12  BANK13  BANK14  BANK15
  2987 ;;      Params:         6       0       0       0       0       0       0       0       0       0       0       0       
      +0       0       0       0       0
  2988 ;;      Locals:         4       0       0       0       0       0       0       0       0       0       0       0       
      +0       0       0       0       0
  2989 ;;      Temps:          1       0       0       0       0       0       0       0       0       0       0       0       
      +0       0       0       0       0
  2990 ;;      Totals:        11       0       0       0       0       0       0       0       0       0       0       0       
      +0       0       0       0       0
  2991 ;;Total ram usage:       11 bytes
  2992 ;; Hardware stack levels used: 1
  2993 ;; Hardware stack levels required when called: 3
  2994 ;; This function calls:
  2995 ;;		_fputc
  2996 ;;		_fputs
  2997 ;; This function is called by:
  2998 ;;		_dtoa
  2999 ;; This function uses a non-reentrant model
  3000 ;;
  3001                           
  3002                           	psect	text12
  3003   0022B0                     __ptext12:
  3004                           	callstack 0
  3005   0022B0                     _pad:
  3006                           	callstack 22
  3007   0022B0                     
  3008                           ;C:\Program Files\Microchip\xc8\v2.41\pic\sources\c99\common\doprnt.c: 152: static void 
      +                          pad(FILE *fp, char *buf, int p);C:\Program Files\Microchip\xc8\v2.41\pic\sources\c99\com
      +                          mon\doprnt.c: 153: {;C:\Program Files\Microchip\xc8\v2.41\pic\sources\c99\common\doprnt.
      +                          c: 154:     int i, w;;C:\Program Files\Microchip\xc8\v2.41\pic\sources\c99\common\doprnt
      +                          .c: 164:     w = (p < 0) ? 0 : p;
  3009   0022B0  BE16               	btfsc	(pad@p+1)^0,7,c
  3010   0022B2  EF5D  F011         	goto	u2071
  3011   0022B6  EF5F  F011         	goto	u2070
  3012   0022BA                     u2071:
  3013   0022BA  EF65  F011         	goto	l2920
  3014   0022BE                     u2070:
  3015   0022BE  C015  F01A         	movff	pad@p,pad@w
  3016   0022C2  C016  F01B         	movff	pad@p+1,pad@w+1
  3017   0022C6  EF69  F011         	goto	l1318
  3018   0022CA                     l2920:
  3019   0022CA  0E00               	movlw	0
  3020   0022CC  6E1B               	movwf	(pad@w+1)^0,c
  3021   0022CE  0E00               	movlw	0
  3022   0022D0  6E1A               	movwf	pad@w^0,c
  3023   0022D2                     l1318:
  3024                           
  3025                           ;C:\Program Files\Microchip\xc8\v2.41\pic\sources\c99\common\doprnt.c: 165:     i = 0;
  3026   0022D2  0E00               	movlw	0
  3027   0022D4  6E19               	movwf	(pad@i+1)^0,c
  3028   0022D6  0E00               	movlw	0
  3029   0022D8  6E18               	movwf	pad@i^0,c
  3030                           
  3031                           ;C:\Program Files\Microchip\xc8\v2.41\pic\sources\c99\common\doprnt.c: 166:     while (i
      +                           < w) {
  3032   0022DA  EF7B  F011         	goto	l2926
  3033   0022DE                     l2922:
  3034                           
  3035                           ;C:\Program Files\Microchip\xc8\v2.41\pic\sources\c99\common\doprnt.c: 167:         fput
      +                          c(' ', fp);
  3036   0022DE  0E00               	movlw	0
  3037   0022E0  6E02               	movwf	(fputc@c+1)^0,c
  3038   0022E2  0E20               	movlw	32
  3039   0022E4  6E01               	movwf	fputc@c^0,c
  3040   0022E6  C011  F003         	movff	pad@fp,fputc@fp
  3041   0022EA  C012  F004         	movff	pad@fp+1,fputc@fp+1
  3042   0022EE  EC2E  F00F         	call	_fputc	;wreg free
  3043   0022F2                     
  3044                           ;C:\Program Files\Microchip\xc8\v2.41\pic\sources\c99\common\doprnt.c: 168:         ++i;
  3045   0022F2  4A18               	infsnz	pad@i^0,f,c
  3046   0022F4  2A19               	incf	(pad@i+1)^0,f,c
  3047   0022F6                     l2926:
  3048                           
  3049                           ;C:\Program Files\Microchip\xc8\v2.41\pic\sources\c99\common\doprnt.c: 166:     while (i
      +                           < w) {
  3050   0022F6  501A               	movf	pad@w^0,w,c
  3051   0022F8  5C18               	subwf	pad@i^0,w,c
  3052   0022FA  5019               	movf	(pad@i+1)^0,w,c
  3053   0022FC  0A80               	xorlw	128
  3054   0022FE  6E17               	movwf	??_pad^0,c
  3055   002300  501B               	movf	(pad@w+1)^0,w,c
  3056   002302  0A80               	xorlw	128
  3057   002304  5817               	subwfb	??_pad^0,w,c
  3058   002306  A0D8               	btfss	status,0,c
  3059   002308  EF88  F011         	goto	u2081
  3060   00230C  EF8A  F011         	goto	u2080
  3061   002310                     u2081:
  3062   002310  EF6F  F011         	goto	l2922
  3063   002314                     u2080:
  3064   002314                     
  3065                           ;C:\Program Files\Microchip\xc8\v2.41\pic\sources\c99\common\doprnt.c: 175:         fput
      +                          s((const char *)buf, fp);
  3066   002314  C013  F00A         	movff	pad@buf,fputs@s
  3067   002318  C014  F00B         	movff	pad@buf+1,fputs@s+1
  3068   00231C  C011  F00C         	movff	pad@fp,fputs@fp
  3069   002320  C012  F00D         	movff	pad@fp+1,fputs@fp+1
  3070   002324  ECDA  F013         	call	_fputs	;wreg free
  3071   002328  0012               	return		;funcret
  3072   00232A                     __end_of_pad:
  3073                           	callstack 0
  3074                           
  3075 ;; *************** function _fputs *****************
  3076 ;; Defined at:
  3077 ;;		line 8 in file "C:\Program Files\Microchip\xc8\v2.41\pic\sources\c99\common\nf_fputs.c"
  3078 ;; Parameters:    Size  Location     Type
  3079 ;;  s               2    9[COMRAM] PTR const unsigned char 
  3080 ;;		 -> dbuf(32), 
  3081 ;;  fp              2   11[COMRAM] PTR struct _IO_FILE
  3082 ;;		 -> sprintf@f(12), 
  3083 ;; Auto vars:     Size  Location     Type
  3084 ;;  i               2   14[COMRAM] int 
  3085 ;;  c               1   13[COMRAM] unsigned char 
  3086 ;; Return value:  Size  Location     Type
  3087 ;;                  2    9[COMRAM] int 
  3088 ;; Registers used:
  3089 ;;		wreg, fsr1l, fsr1h, fsr2l, fsr2h, status,2, status,0, cstack
  3090 ;; Tracked objects:
  3091 ;;		On entry : 0/0
  3092 ;;		On exit  : 0/0
  3093 ;;		Unchanged: 0/0
  3094 ;; Data sizes:     COMRAM   BANK0   BANK1   BANK2   BANK3   BANK4   BANK5   BANK6   BANK7   BANK8   BANK9  BANK10  BANK1
      +1  BANK12  BANK13  BANK14  BANK15
  3095 ;;      Params:         4       0       0       0       0       0       0       0       0       0       0       0       
      +0       0       0       0       0
  3096 ;;      Locals:         3       0       0       0       0       0       0       0       0       0       0       0       
      +0       0       0       0       0
  3097 ;;      Temps:          0       0       0       0       0       0       0       0       0       0       0       0       
      +0       0       0       0       0
  3098 ;;      Totals:         7       0       0       0       0       0       0       0       0       0       0       0       
      +0       0       0       0       0
  3099 ;;Total ram usage:        7 bytes
  3100 ;; Hardware stack levels used: 1
  3101 ;; Hardware stack levels required when called: 2
  3102 ;; This function calls:
  3103 ;;		_fputc
  3104 ;; This function is called by:
  3105 ;;		_pad
  3106 ;; This function uses a non-reentrant model
  3107 ;;
  3108                           
  3109                           	psect	text13
  3110   0027B4                     __ptext13:
  3111                           	callstack 0
  3112   0027B4                     _fputs:
  3113                           	callstack 22
  3114   0027B4  0E00               	movlw	0
  3115   0027B6  6E10               	movwf	(fputs@i+1)^0,c
  3116   0027B8  0E00               	movlw	0
  3117   0027BA  6E0F               	movwf	fputs@i^0,c
  3118   0027BC  EFEB  F013         	goto	l2810
  3119   0027C0                     l2806:
  3120   0027C0  C00E  F001         	movff	fputs@c,fputc@c
  3121   0027C4  6A02               	clrf	(fputc@c+1)^0,c
  3122   0027C6  C00C  F003         	movff	fputs@fp,fputc@fp
  3123   0027CA  C00D  F004         	movff	fputs@fp+1,fputc@fp+1
  3124   0027CE  EC2E  F00F         	call	_fputc	;wreg free
  3125   0027D2  4A0F               	infsnz	fputs@i^0,f,c
  3126   0027D4  2A10               	incf	(fputs@i+1)^0,f,c
  3127   0027D6                     l2810:
  3128   0027D6  500F               	movf	fputs@i^0,w,c
  3129   0027D8  240A               	addwf	fputs@s^0,w,c
  3130   0027DA  6ED9               	movwf	fsr2l,c
  3131   0027DC  5010               	movf	(fputs@i+1)^0,w,c
  3132   0027DE  200B               	addwfc	(fputs@s+1)^0,w,c
  3133   0027E0  6EDA               	movwf	fsr2h,c
  3134   0027E2  50DF               	movf	indf2,w,c
  3135   0027E4  6E0E               	movwf	fputs@c^0,c
  3136   0027E6  500E               	movf	fputs@c^0,w,c
  3137   0027E8  A4D8               	btfss	status,2,c
  3138   0027EA  EFF9  F013         	goto	u1901
  3139   0027EE  EFFB  F013         	goto	u1900
  3140   0027F2                     u1901:
  3141   0027F2  EFE0  F013         	goto	l2806
  3142   0027F6                     u1900:
  3143   0027F6  0012               	return		;funcret
  3144   0027F8                     __end_of_fputs:
  3145                           	callstack 0
  3146                           
  3147 ;; *************** function _fputc *****************
  3148 ;; Defined at:
  3149 ;;		line 8 in file "C:\Program Files\Microchip\xc8\v2.41\pic\sources\c99\common\nf_fputc.c"
  3150 ;; Parameters:    Size  Location     Type
  3151 ;;  c               2    0[COMRAM] int 
  3152 ;;  fp              2    2[COMRAM] PTR struct _IO_FILE
  3153 ;;		 -> sprintf@f(12), 
  3154 ;; Auto vars:     Size  Location     Type
  3155 ;;		None
  3156 ;; Return value:  Size  Location     Type
  3157 ;;                  2    0[COMRAM] int 
  3158 ;; Registers used:
  3159 ;;		wreg, fsr1l, fsr1h, fsr2l, fsr2h, status,2, status,0, cstack
  3160 ;; Tracked objects:
  3161 ;;		On entry : 0/0
  3162 ;;		On exit  : 0/0
  3163 ;;		Unchanged: 0/0
  3164 ;; Data sizes:     COMRAM   BANK0   BANK1   BANK2   BANK3   BANK4   BANK5   BANK6   BANK7   BANK8   BANK9  BANK10  BANK1
      +1  BANK12  BANK13  BANK14  BANK15
  3165 ;;      Params:         4       0       0       0       0       0       0       0       0       0       0       0       
      +0       0       0       0       0
  3166 ;;      Locals:         0       0       0       0       0       0       0       0       0       0       0       0       
      +0       0       0       0       0
  3167 ;;      Temps:          5       0       0       0       0       0       0       0       0       0       0       0       
      +0       0       0       0       0
  3168 ;;      Totals:         9       0       0       0       0       0       0       0       0       0       0       0       
      +0       0       0       0       0
  3169 ;;Total ram usage:        9 bytes
  3170 ;; Hardware stack levels used: 1
  3171 ;; Hardware stack levels required when called: 1
  3172 ;; This function calls:
  3173 ;;		_putch
  3174 ;; This function is called by:
  3175 ;;		_pad
  3176 ;;		_vfpfcnvrt
  3177 ;;		_fputs
  3178 ;; This function uses a non-reentrant model
  3179 ;;
  3180                           
  3181                           	psect	text14
  3182   001E5C                     __ptext14:
  3183                           	callstack 0
  3184   001E5C                     _fputc:
  3185                           	callstack 25
  3186   001E5C  5003               	movf	fputc@fp^0,w,c
  3187   001E5E  1004               	iorwf	(fputc@fp+1)^0,w,c
  3188   001E60  B4D8               	btfsc	status,2,c
  3189   001E62  EF35  F00F         	goto	u1861
  3190   001E66  EF37  F00F         	goto	u1860
  3191   001E6A                     u1861:
  3192   001E6A  EF40  F00F         	goto	l2794
  3193   001E6E                     u1860:
  3194   001E6E  5003               	movf	fputc@fp^0,w,c
  3195   001E70  1004               	iorwf	(fputc@fp+1)^0,w,c
  3196   001E72  A4D8               	btfss	status,2,c
  3197   001E74  EF3E  F00F         	goto	u1871
  3198   001E78  EF40  F00F         	goto	u1870
  3199   001E7C                     u1871:
  3200   001E7C  EF45  F00F         	goto	l2796
  3201   001E80                     u1870:
  3202   001E80                     l2794:
  3203   001E80  5001               	movf	fputc@c^0,w,c
  3204   001E82  EC6C  F014         	call	_putch
  3205   001E86  EF92  F00F         	goto	l1373
  3206   001E8A                     l2796:
  3207   001E8A  EE20 F00A          	lfsr	2,10
  3208   001E8E  5003               	movf	fputc@fp^0,w,c
  3209   001E90  26D9               	addwf	fsr2l,f,c
  3210   001E92  5004               	movf	(fputc@fp+1)^0,w,c
  3211   001E94  22DA               	addwfc	fsr2h,f,c
  3212   001E96  50DE               	movf	postinc2,w,c
  3213   001E98  10DE               	iorwf	postinc2,w,c
  3214   001E9A  B4D8               	btfsc	status,2,c
  3215   001E9C  EF52  F00F         	goto	u1881
  3216   001EA0  EF54  F00F         	goto	u1880
  3217   001EA4                     u1881:
  3218   001EA4  EF6F  F00F         	goto	l2800
  3219   001EA8                     u1880:
  3220   001EA8  EE20 F00A          	lfsr	2,10
  3221   001EAC  5003               	movf	fputc@fp^0,w,c
  3222   001EAE  26D9               	addwf	fsr2l,f,c
  3223   001EB0  5004               	movf	(fputc@fp+1)^0,w,c
  3224   001EB2  22DA               	addwfc	fsr2h,f,c
  3225   001EB4  EE10 F003          	lfsr	1,3
  3226   001EB8  5003               	movf	fputc@fp^0,w,c
  3227   001EBA  26E1               	addwf	fsr1l,f,c
  3228   001EBC  5004               	movf	(fputc@fp+1)^0,w,c
  3229   001EBE  22E2               	addwfc	fsr1h,f,c
  3230   001EC0  50DE               	movf	postinc2,w,c
  3231   001EC2  5CE6               	subwf	postinc1,w,c
  3232   001EC4  50E6               	movf	postinc1,w,c
  3233   001EC6  0A80               	xorlw	128
  3234   001EC8  6E09               	movwf	(??_fputc+4)^0,c
  3235   001ECA  50DE               	movf	postinc2,w,c
  3236   001ECC  0A80               	xorlw	128
  3237   001ECE  5809               	subwfb	(??_fputc+4)^0,w,c
  3238   001ED0  B0D8               	btfsc	status,0,c
  3239   001ED2  EF6D  F00F         	goto	u1891
  3240   001ED6  EF6F  F00F         	goto	u1890
  3241   001EDA                     u1891:
  3242   001EDA  EF92  F00F         	goto	l1373
  3243   001EDE                     u1890:
  3244   001EDE                     l2800:
  3245   001EDE  EE20 F003          	lfsr	2,3
  3246   001EE2  5003               	movf	fputc@fp^0,w,c
  3247   001EE4  26D9               	addwf	fsr2l,f,c
  3248   001EE6  5004               	movf	(fputc@fp+1)^0,w,c
  3249   001EE8  22DA               	addwfc	fsr2h,f,c
  3250   001EEA  CFDE F005          	movff	postinc2,??_fputc
  3251   001EEE  CFDD F006          	movff	postdec2,??_fputc+1
  3252   001EF2  C003  FFD9         	movff	fputc@fp,fsr2l
  3253   001EF6  C004  FFDA         	movff	fputc@fp+1,fsr2h
  3254   001EFA  CFDE F007          	movff	postinc2,??_fputc+2
  3255   001EFE  CFDD F008          	movff	postdec2,??_fputc+3
  3256   001F02  5005               	movf	??_fputc^0,w,c
  3257   001F04  2407               	addwf	(??_fputc+2)^0,w,c
  3258   001F06  6ED9               	movwf	fsr2l,c
  3259   001F08  5006               	movf	(??_fputc+1)^0,w,c
  3260   001F0A  2008               	addwfc	(??_fputc+3)^0,w,c
  3261   001F0C  6EDA               	movwf	fsr2h,c
  3262   001F0E  C001  FFDF         	movff	fputc@c,indf2
  3263   001F12  EE20 F003          	lfsr	2,3
  3264   001F16  5003               	movf	fputc@fp^0,w,c
  3265   001F18  26D9               	addwf	fsr2l,f,c
  3266   001F1A  5004               	movf	(fputc@fp+1)^0,w,c
  3267   001F1C  22DA               	addwfc	fsr2h,f,c
  3268   001F1E  2ADE               	incf	postinc2,f,c
  3269   001F20  0E00               	movlw	0
  3270   001F22  22DD               	addwfc	postdec2,f,c
  3271   001F24                     l1373:
  3272   001F24  0012               	return		;funcret
  3273   001F26                     __end_of_fputc:
  3274                           	callstack 0
  3275                           
  3276 ;; *************** function _putch *****************
  3277 ;; Defined at:
  3278 ;;		line 7 in file "C:\Program Files\Microchip\xc8\v2.41\pic\sources\c99\common\putch.c"
  3279 ;; Parameters:    Size  Location     Type
  3280 ;;  c               1    wreg     unsigned char 
  3281 ;; Auto vars:     Size  Location     Type
  3282 ;;  c               1    0[COMRAM] unsigned char 
  3283 ;; Return value:  Size  Location     Type
  3284 ;;                  1    wreg      void 
  3285 ;; Registers used:
  3286 ;;		wreg
  3287 ;; Tracked objects:
  3288 ;;		On entry : 0/0
  3289 ;;		On exit  : 0/0
  3290 ;;		Unchanged: 0/0
  3291 ;; Data sizes:     COMRAM   BANK0   BANK1   BANK2   BANK3   BANK4   BANK5   BANK6   BANK7   BANK8   BANK9  BANK10  BANK1
      +1  BANK12  BANK13  BANK14  BANK15
  3292 ;;      Params:         0       0       0       0       0       0       0       0       0       0       0       0       
      +0       0       0       0       0
  3293 ;;      Locals:         0       0       0       0       0       0       0       0       0       0       0       0       
      +0       0       0       0       0
  3294 ;;      Temps:          0       0       0       0       0       0       0       0       0       0       0       0       
      +0       0       0       0       0
  3295 ;;      Totals:         0       0       0       0       0       0       0       0       0       0       0       0       
      +0       0       0       0       0
  3296 ;;Total ram usage:        0 bytes
  3297 ;; Hardware stack levels used: 1
  3298 ;; This function calls:
  3299 ;;		Nothing
  3300 ;; This function is called by:
  3301 ;;		_fputc
  3302 ;; This function uses a non-reentrant model
  3303 ;;
  3304                           
  3305                           	psect	text15
  3306   0028D8                     __ptext15:
  3307                           	callstack 0
  3308   0028D8                     _putch:
  3309                           	callstack 25
  3310   0028D8  0012               	return		;funcret
  3311   0028DA                     __end_of_putch:
  3312                           	callstack 0
  3313                           
  3314 ;; *************** function _abs *****************
  3315 ;; Defined at:
  3316 ;;		line 1 in file "C:\Program Files\Microchip\xc8\v2.41\pic\sources\c99\common\abs.c"
  3317 ;; Parameters:    Size  Location     Type
  3318 ;;  a               2    6[COMRAM] int 
  3319 ;; Auto vars:     Size  Location     Type
  3320 ;;		None
  3321 ;; Return value:  Size  Location     Type
  3322 ;;                  2    6[COMRAM] int 
  3323 ;; Registers used:
  3324 ;;		wreg, status,2, status,0
  3325 ;; Tracked objects:
  3326 ;;		On entry : 0/0
  3327 ;;		On exit  : 0/0
  3328 ;;		Unchanged: 0/0
  3329 ;; Data sizes:     COMRAM   BANK0   BANK1   BANK2   BANK3   BANK4   BANK5   BANK6   BANK7   BANK8   BANK9  BANK10  BANK1
      +1  BANK12  BANK13  BANK14  BANK15
  3330 ;;      Params:         2       0       0       0       0       0       0       0       0       0       0       0       
      +0       0       0       0       0
  3331 ;;      Locals:         0       0       0       0       0       0       0       0       0       0       0       0       
      +0       0       0       0       0
  3332 ;;      Temps:          2       0       0       0       0       0       0       0       0       0       0       0       
      +0       0       0       0       0
  3333 ;;      Totals:         4       0       0       0       0       0       0       0       0       0       0       0       
      +0       0       0       0       0
  3334 ;;Total ram usage:        4 bytes
  3335 ;; Hardware stack levels used: 1
  3336 ;; This function calls:
  3337 ;;		Nothing
  3338 ;; This function is called by:
  3339 ;;		_dtoa
  3340 ;; This function uses a non-reentrant model
  3341 ;;
  3342                           
  3343                           	psect	text16
  3344   0027F8                     __ptext16:
  3345                           	callstack 0
  3346   0027F8                     _abs:
  3347                           	callstack 25
  3348   0027F8  BE08               	btfsc	(abs@a+1)^0,7,c
  3349   0027FA  EF09  F014         	goto	u2090
  3350   0027FE  5008               	movf	(abs@a+1)^0,w,c
  3351   002800  E106               	bnz	u2091
  3352   002802  0407               	decf	abs@a^0,w,c
  3353   002804  B0D8               	btfsc	status,0,c
  3354   002806  EF07  F014         	goto	u2091
  3355   00280A  EF09  F014         	goto	u2090
  3356   00280E                     u2091:
  3357   00280E  EF17  F014         	goto	l1358
  3358   002812                     u2090:
  3359   002812  C007  F009         	movff	abs@a,??_abs
  3360   002816  C008  F00A         	movff	abs@a+1,??_abs+1
  3361   00281A  1E09               	comf	??_abs^0,f,c
  3362   00281C  1E0A               	comf	(??_abs+1)^0,f,c
  3363   00281E  4A09               	infsnz	??_abs^0,f,c
  3364   002820  2A0A               	incf	(??_abs+1)^0,f,c
  3365   002822  C009  F007         	movff	??_abs,?_abs
  3366   002826  C00A  F008         	movff	??_abs+1,?_abs+1
  3367   00282A  EF1B  F014         	goto	l1361
  3368   00282E                     l1358:
  3369   00282E  C007  F007         	movff	abs@a,?_abs
  3370   002832  C008  F008         	movff	abs@a+1,?_abs+1
  3371   002836                     l1361:
  3372   002836  0012               	return		;funcret
  3373   002838                     __end_of_abs:
  3374                           	callstack 0
  3375                           
  3376 ;; *************** function ___awmod *****************
  3377 ;; Defined at:
  3378 ;;		line 7 in file "C:\Program Files\Microchip\xc8\v2.41\pic\sources\c99\common\awmod.c"
  3379 ;; Parameters:    Size  Location     Type
  3380 ;;  dividend        2    0[COMRAM] int 
  3381 ;;  divisor         2    2[COMRAM] int 
  3382 ;; Auto vars:     Size  Location     Type
  3383 ;;  sign            1    5[COMRAM] unsigned char 
  3384 ;;  counter         1    4[COMRAM] unsigned char 
  3385 ;; Return value:  Size  Location     Type
  3386 ;;                  2    0[COMRAM] int 
  3387 ;; Registers used:
  3388 ;;		wreg, status,2, status,0
  3389 ;; Tracked objects:
  3390 ;;		On entry : 0/0
  3391 ;;		On exit  : 0/0
  3392 ;;		Unchanged: 0/0
  3393 ;; Data sizes:     COMRAM   BANK0   BANK1   BANK2   BANK3   BANK4   BANK5   BANK6   BANK7   BANK8   BANK9  BANK10  BANK1
      +1  BANK12  BANK13  BANK14  BANK15
  3394 ;;      Params:         4       0       0       0       0       0       0       0       0       0       0       0       
      +0       0       0       0       0
  3395 ;;      Locals:         2       0       0       0       0       0       0       0       0       0       0       0       
      +0       0       0       0       0
  3396 ;;      Temps:          0       0       0       0       0       0       0       0       0       0       0       0       
      +0       0       0       0       0
  3397 ;;      Totals:         6       0       0       0       0       0       0       0       0       0       0       0       
      +0       0       0       0       0
  3398 ;;Total ram usage:        6 bytes
  3399 ;; Hardware stack levels used: 1
  3400 ;; This function calls:
  3401 ;;		Nothing
  3402 ;; This function is called by:
  3403 ;;		_dtoa
  3404 ;; This function uses a non-reentrant model
  3405 ;;
  3406                           
  3407                           	psect	text17
  3408   002164                     __ptext17:
  3409                           	callstack 0
  3410   002164                     ___awmod:
  3411                           	callstack 25
  3412   002164  0E00               	movlw	0
  3413   002166  6E06               	movwf	___awmod@sign^0,c
  3414   002168  BE02               	btfsc	(___awmod@dividend+1)^0,7,c
  3415   00216A  EFBB  F010         	goto	u2010
  3416   00216E  EFB9  F010         	goto	u2011
  3417   002172                     u2011:
  3418   002172  EFC1  F010         	goto	l2888
  3419   002176                     u2010:
  3420   002176  6C01               	negf	___awmod@dividend^0,c
  3421   002178  1E02               	comf	(___awmod@dividend+1)^0,f,c
  3422   00217A  B0D8               	btfsc	status,0,c
  3423   00217C  2A02               	incf	(___awmod@dividend+1)^0,f,c
  3424   00217E  0E01               	movlw	1
  3425   002180  6E06               	movwf	___awmod@sign^0,c
  3426   002182                     l2888:
  3427   002182  BE04               	btfsc	(___awmod@divisor+1)^0,7,c
  3428   002184  EFC8  F010         	goto	u2020
  3429   002188  EFC6  F010         	goto	u2021
  3430   00218C                     u2021:
  3431   00218C  EFCC  F010         	goto	l2892
  3432   002190                     u2020:
  3433   002190  6C03               	negf	___awmod@divisor^0,c
  3434   002192  1E04               	comf	(___awmod@divisor+1)^0,f,c
  3435   002194  B0D8               	btfsc	status,0,c
  3436   002196  2A04               	incf	(___awmod@divisor+1)^0,f,c
  3437   002198                     l2892:
  3438   002198  5003               	movf	___awmod@divisor^0,w,c
  3439   00219A  1004               	iorwf	(___awmod@divisor+1)^0,w,c
  3440   00219C  B4D8               	btfsc	status,2,c
  3441   00219E  EFD3  F010         	goto	u2031
  3442   0021A2  EFD5  F010         	goto	u2030
  3443   0021A6                     u2031:
  3444   0021A6  EFF9  F010         	goto	l2908
  3445   0021AA                     u2030:
  3446   0021AA  0E01               	movlw	1
  3447   0021AC  6E05               	movwf	___awmod@counter^0,c
  3448   0021AE  EFDD  F010         	goto	l2898
  3449   0021B2                     l2896:
  3450   0021B2  90D8               	bcf	status,0,c
  3451   0021B4  3603               	rlcf	___awmod@divisor^0,f,c
  3452   0021B6  3604               	rlcf	(___awmod@divisor+1)^0,f,c
  3453   0021B8  2A05               	incf	___awmod@counter^0,f,c
  3454   0021BA                     l2898:
  3455   0021BA  AE04               	btfss	(___awmod@divisor+1)^0,7,c
  3456   0021BC  EFE2  F010         	goto	u2041
  3457   0021C0  EFE4  F010         	goto	u2040
  3458   0021C4                     u2041:
  3459   0021C4  EFD9  F010         	goto	l2896
  3460   0021C8                     u2040:
  3461   0021C8                     l2900:
  3462   0021C8  5003               	movf	___awmod@divisor^0,w,c
  3463   0021CA  5C01               	subwf	___awmod@dividend^0,w,c
  3464   0021CC  5004               	movf	(___awmod@divisor+1)^0,w,c
  3465   0021CE  5802               	subwfb	(___awmod@dividend+1)^0,w,c
  3466   0021D0  A0D8               	btfss	status,0,c
  3467   0021D2  EFED  F010         	goto	u2051
  3468   0021D6  EFEF  F010         	goto	u2050
  3469   0021DA                     u2051:
  3470   0021DA  EFF3  F010         	goto	l2904
  3471   0021DE                     u2050:
  3472   0021DE  5003               	movf	___awmod@divisor^0,w,c
  3473   0021E0  5E01               	subwf	___awmod@dividend^0,f,c
  3474   0021E2  5004               	movf	(___awmod@divisor+1)^0,w,c
  3475   0021E4  5A02               	subwfb	(___awmod@dividend+1)^0,f,c
  3476   0021E6                     l2904:
  3477   0021E6  90D8               	bcf	status,0,c
  3478   0021E8  3204               	rrcf	(___awmod@divisor+1)^0,f,c
  3479   0021EA  3203               	rrcf	___awmod@divisor^0,f,c
  3480   0021EC  2E05               	decfsz	___awmod@counter^0,f,c
  3481   0021EE  EFE4  F010         	goto	l2900
  3482   0021F2                     l2908:
  3483   0021F2  5006               	movf	___awmod@sign^0,w,c
  3484   0021F4  B4D8               	btfsc	status,2,c
  3485   0021F6  EFFF  F010         	goto	u2061
  3486   0021FA  EF01  F011         	goto	u2060
  3487   0021FE                     u2061:
  3488   0021FE  EF05  F011         	goto	l2912
  3489   002202                     u2060:
  3490   002202  6C01               	negf	___awmod@dividend^0,c
  3491   002204  1E02               	comf	(___awmod@dividend+1)^0,f,c
  3492   002206  B0D8               	btfsc	status,0,c
  3493   002208  2A02               	incf	(___awmod@dividend+1)^0,f,c
  3494   00220A                     l2912:
  3495   00220A  C001  F001         	movff	___awmod@dividend,?___awmod
  3496   00220E  C002  F002         	movff	___awmod@dividend+1,?___awmod+1
  3497   002212  0012               	return		;funcret
  3498   002214                     __end_of___awmod:
  3499                           	callstack 0
  3500                           
  3501 ;; *************** function ___awdiv *****************
  3502 ;; Defined at:
  3503 ;;		line 7 in file "C:\Program Files\Microchip\xc8\v2.41\pic\sources\c99\common\awdiv.c"
  3504 ;; Parameters:    Size  Location     Type
  3505 ;;  dividend        2    0[COMRAM] int 
  3506 ;;  divisor         2    2[COMRAM] int 
  3507 ;; Auto vars:     Size  Location     Type
  3508 ;;  quotient        2    6[COMRAM] int 
  3509 ;;  sign            1    5[COMRAM] unsigned char 
  3510 ;;  counter         1    4[COMRAM] unsigned char 
  3511 ;; Return value:  Size  Location     Type
  3512 ;;                  2    0[COMRAM] int 
  3513 ;; Registers used:
  3514 ;;		wreg, status,2, status,0
  3515 ;; Tracked objects:
  3516 ;;		On entry : 0/0
  3517 ;;		On exit  : 0/0
  3518 ;;		Unchanged: 0/0
  3519 ;; Data sizes:     COMRAM   BANK0   BANK1   BANK2   BANK3   BANK4   BANK5   BANK6   BANK7   BANK8   BANK9  BANK10  BANK1
      +1  BANK12  BANK13  BANK14  BANK15
  3520 ;;      Params:         4       0       0       0       0       0       0       0       0       0       0       0       
      +0       0       0       0       0
  3521 ;;      Locals:         4       0       0       0       0       0       0       0       0       0       0       0       
      +0       0       0       0       0
  3522 ;;      Temps:          0       0       0       0       0       0       0       0       0       0       0       0       
      +0       0       0       0       0
  3523 ;;      Totals:         8       0       0       0       0       0       0       0       0       0       0       0       
      +0       0       0       0       0
  3524 ;;Total ram usage:        8 bytes
  3525 ;; Hardware stack levels used: 1
  3526 ;; This function calls:
  3527 ;;		Nothing
  3528 ;; This function is called by:
  3529 ;;		_main
  3530 ;;		_dtoa
  3531 ;; This function uses a non-reentrant model
  3532 ;;
  3533                           
  3534                           	psect	text18
  3535   001F26                     __ptext18:
  3536                           	callstack 0
  3537   001F26                     ___awdiv:
  3538                           	callstack 25
  3539   001F26  0E00               	movlw	0
  3540   001F28  6E06               	movwf	___awdiv@sign^0,c
  3541   001F2A  BE04               	btfsc	(___awdiv@divisor+1)^0,7,c
  3542   001F2C  EF9C  F00F         	goto	u1950
  3543   001F30  EF9A  F00F         	goto	u1951
  3544   001F34                     u1951:
  3545   001F34  EFA2  F00F         	goto	l2844
  3546   001F38                     u1950:
  3547   001F38  6C03               	negf	___awdiv@divisor^0,c
  3548   001F3A  1E04               	comf	(___awdiv@divisor+1)^0,f,c
  3549   001F3C  B0D8               	btfsc	status,0,c
  3550   001F3E  2A04               	incf	(___awdiv@divisor+1)^0,f,c
  3551   001F40  0E01               	movlw	1
  3552   001F42  6E06               	movwf	___awdiv@sign^0,c
  3553   001F44                     l2844:
  3554   001F44  BE02               	btfsc	(___awdiv@dividend+1)^0,7,c
  3555   001F46  EFA9  F00F         	goto	u1960
  3556   001F4A  EFA7  F00F         	goto	u1961
  3557   001F4E                     u1961:
  3558   001F4E  EFAF  F00F         	goto	l2850
  3559   001F52                     u1960:
  3560   001F52  6C01               	negf	___awdiv@dividend^0,c
  3561   001F54  1E02               	comf	(___awdiv@dividend+1)^0,f,c
  3562   001F56  B0D8               	btfsc	status,0,c
  3563   001F58  2A02               	incf	(___awdiv@dividend+1)^0,f,c
  3564   001F5A  0E01               	movlw	1
  3565   001F5C  1A06               	xorwf	___awdiv@sign^0,f,c
  3566   001F5E                     l2850:
  3567   001F5E  0E00               	movlw	0
  3568   001F60  6E08               	movwf	(___awdiv@quotient+1)^0,c
  3569   001F62  0E00               	movlw	0
  3570   001F64  6E07               	movwf	___awdiv@quotient^0,c
  3571   001F66  5003               	movf	___awdiv@divisor^0,w,c
  3572   001F68  1004               	iorwf	(___awdiv@divisor+1)^0,w,c
  3573   001F6A  B4D8               	btfsc	status,2,c
  3574   001F6C  EFBA  F00F         	goto	u1971
  3575   001F70  EFBC  F00F         	goto	u1970
  3576   001F74                     u1971:
  3577   001F74  EFE4  F00F         	goto	l2872
  3578   001F78                     u1970:
  3579   001F78  0E01               	movlw	1
  3580   001F7A  6E05               	movwf	___awdiv@counter^0,c
  3581   001F7C  EFC4  F00F         	goto	l2858
  3582   001F80                     l2856:
  3583   001F80  90D8               	bcf	status,0,c
  3584   001F82  3603               	rlcf	___awdiv@divisor^0,f,c
  3585   001F84  3604               	rlcf	(___awdiv@divisor+1)^0,f,c
  3586   001F86  2A05               	incf	___awdiv@counter^0,f,c
  3587   001F88                     l2858:
  3588   001F88  AE04               	btfss	(___awdiv@divisor+1)^0,7,c
  3589   001F8A  EFC9  F00F         	goto	u1981
  3590   001F8E  EFCB  F00F         	goto	u1980
  3591   001F92                     u1981:
  3592   001F92  EFC0  F00F         	goto	l2856
  3593   001F96                     u1980:
  3594   001F96                     l2860:
  3595   001F96  90D8               	bcf	status,0,c
  3596   001F98  3607               	rlcf	___awdiv@quotient^0,f,c
  3597   001F9A  3608               	rlcf	(___awdiv@quotient+1)^0,f,c
  3598   001F9C  5003               	movf	___awdiv@divisor^0,w,c
  3599   001F9E  5C01               	subwf	___awdiv@dividend^0,w,c
  3600   001FA0  5004               	movf	(___awdiv@divisor+1)^0,w,c
  3601   001FA2  5802               	subwfb	(___awdiv@dividend+1)^0,w,c
  3602   001FA4  A0D8               	btfss	status,0,c
  3603   001FA6  EFD7  F00F         	goto	u1991
  3604   001FAA  EFD9  F00F         	goto	u1990
  3605   001FAE                     u1991:
  3606   001FAE  EFDE  F00F         	goto	l2868
  3607   001FB2                     u1990:
  3608   001FB2  5003               	movf	___awdiv@divisor^0,w,c
  3609   001FB4  5E01               	subwf	___awdiv@dividend^0,f,c
  3610   001FB6  5004               	movf	(___awdiv@divisor+1)^0,w,c
  3611   001FB8  5A02               	subwfb	(___awdiv@dividend+1)^0,f,c
  3612   001FBA  8007               	bsf	___awdiv@quotient^0,0,c
  3613   001FBC                     l2868:
  3614   001FBC  90D8               	bcf	status,0,c
  3615   001FBE  3204               	rrcf	(___awdiv@divisor+1)^0,f,c
  3616   001FC0  3203               	rrcf	___awdiv@divisor^0,f,c
  3617   001FC2  2E05               	decfsz	___awdiv@counter^0,f,c
  3618   001FC4  EFCB  F00F         	goto	l2860
  3619   001FC8                     l2872:
  3620   001FC8  5006               	movf	___awdiv@sign^0,w,c
  3621   001FCA  B4D8               	btfsc	status,2,c
  3622   001FCC  EFEA  F00F         	goto	u2001
  3623   001FD0  EFEC  F00F         	goto	u2000
  3624   001FD4                     u2001:
  3625   001FD4  EFF0  F00F         	goto	l2876
  3626   001FD8                     u2000:
  3627   001FD8  6C07               	negf	___awdiv@quotient^0,c
  3628   001FDA  1E08               	comf	(___awdiv@quotient+1)^0,f,c
  3629   001FDC  B0D8               	btfsc	status,0,c
  3630   001FDE  2A08               	incf	(___awdiv@quotient+1)^0,f,c
  3631   001FE0                     l2876:
  3632   001FE0  C007  F001         	movff	___awdiv@quotient,?___awdiv
  3633   001FE4  C008  F002         	movff	___awdiv@quotient+1,?___awdiv+1
  3634   001FE8  0012               	return		;funcret
  3635   001FEA                     __end_of___awdiv:
  3636                           	callstack 0
  3637                           
  3638 ;; *************** function _memset *****************
  3639 ;; Defined at:
  3640 ;;		line 4 in file "C:\Program Files\Microchip\xc8\v2.41\pic\sources\c99\common\memset.c"
  3641 ;; Parameters:    Size  Location     Type
  3642 ;;  dest            2    0[COMRAM] PTR void 
  3643 ;;		 -> a(11), num2(20), num1(20), 
  3644 ;;  c               2    2[COMRAM] int 
  3645 ;;  n               2    4[COMRAM] unsigned int 
  3646 ;; Auto vars:     Size  Location     Type
  3647 ;;  s               2   10[COMRAM] PTR unsigned char 
  3648 ;;		 -> a(11), num2(20), num1(20), 
  3649 ;;  k               2    8[COMRAM] unsigned int 
  3650 ;; Return value:  Size  Location     Type
  3651 ;;                  2    0[COMRAM] PTR void 
  3652 ;; Registers used:
  3653 ;;		wreg, fsr2l, fsr2h, status,2, status,0
  3654 ;; Tracked objects:
  3655 ;;		On entry : 0/0
  3656 ;;		On exit  : 0/0
  3657 ;;		Unchanged: 0/0
  3658 ;; Data sizes:     COMRAM   BANK0   BANK1   BANK2   BANK3   BANK4   BANK5   BANK6   BANK7   BANK8   BANK9  BANK10  BANK1
      +1  BANK12  BANK13  BANK14  BANK15
  3659 ;;      Params:         6       0       0       0       0       0       0       0       0       0       0       0       
      +0       0       0       0       0
  3660 ;;      Locals:         4       0       0       0       0       0       0       0       0       0       0       0       
      +0       0       0       0       0
  3661 ;;      Temps:          2       0       0       0       0       0       0       0       0       0       0       0       
      +0       0       0       0       0
  3662 ;;      Totals:        12       0       0       0       0       0       0       0       0       0       0       0       
      +0       0       0       0       0
  3663 ;;Total ram usage:       12 bytes
  3664 ;; Hardware stack levels used: 1
  3665 ;; This function calls:
  3666 ;;		Nothing
  3667 ;; This function is called by:
  3668 ;;		_convert_int_to_string
  3669 ;;		_main
  3670 ;;		_convert_byte_to_string
  3671 ;;		_convert_short_to_string
  3672 ;; This function uses a non-reentrant model
  3673 ;;
  3674                           
  3675                           	psect	text19
  3676   0015D0                     __ptext19:
  3677                           	callstack 0
  3678   0015D0                     _memset:
  3679                           	callstack 30
  3680   0015D0  C001  F00B         	movff	memset@dest,memset@s
  3681   0015D4  C002  F00C         	movff	memset@dest+1,memset@s+1
  3682   0015D8  5005               	movf	memset@n^0,w,c
  3683   0015DA  1006               	iorwf	(memset@n+1)^0,w,c
  3684   0015DC  A4D8               	btfss	status,2,c
  3685   0015DE  EFF3  F00A         	goto	u2531
  3686   0015E2  EFF5  F00A         	goto	u2530
  3687   0015E6                     u2531:
  3688   0015E6  EFF7  F00A         	goto	l3290
  3689   0015EA                     u2530:
  3690   0015EA  EFA2  F00B         	goto	l1283
  3691   0015EE                     l3290:
  3692   0015EE  C00B  FFD9         	movff	memset@s,fsr2l
  3693   0015F2  C00C  FFDA         	movff	memset@s+1,fsr2h
  3694   0015F6  C003  FFDF         	movff	memset@c,indf2
  3695   0015FA  5005               	movf	memset@n^0,w,c
  3696   0015FC  240B               	addwf	memset@s^0,w,c
  3697   0015FE  6E07               	movwf	??_memset^0,c
  3698   001600  5006               	movf	(memset@n+1)^0,w,c
  3699   001602  200C               	addwfc	(memset@s+1)^0,w,c
  3700   001604  6E08               	movwf	(??_memset+1)^0,c
  3701   001606  0EFF               	movlw	255
  3702   001608  2407               	addwf	??_memset^0,w,c
  3703   00160A  6ED9               	movwf	fsr2l,c
  3704   00160C  0EFF               	movlw	255
  3705   00160E  2008               	addwfc	(??_memset+1)^0,w,c
  3706   001610  6EDA               	movwf	fsr2h,c
  3707   001612  C003  FFDF         	movff	memset@c,indf2
  3708   001616  5006               	movf	(memset@n+1)^0,w,c
  3709   001618  E107               	bnz	u2541
  3710   00161A  0E03               	movlw	3
  3711   00161C  5C05               	subwf	memset@n^0,w,c
  3712   00161E  B0D8               	btfsc	status,0,c
  3713   001620  EF14  F00B         	goto	u2541
  3714   001624  EF16  F00B         	goto	u2540
  3715   001628                     u2541:
  3716   001628  EF18  F00B         	goto	l3296
  3717   00162C                     u2540:
  3718   00162C  EFA2  F00B         	goto	l1283
  3719   001630                     l3296:
  3720   001630  EE20 F001          	lfsr	2,1
  3721   001634  500B               	movf	memset@s^0,w,c
  3722   001636  26D9               	addwf	fsr2l,f,c
  3723   001638  500C               	movf	(memset@s+1)^0,w,c
  3724   00163A  22DA               	addwfc	fsr2h,f,c
  3725   00163C  C003  FFDF         	movff	memset@c,indf2
  3726   001640  EE20 F002          	lfsr	2,2
  3727   001644  500B               	movf	memset@s^0,w,c
  3728   001646  26D9               	addwf	fsr2l,f,c
  3729   001648  500C               	movf	(memset@s+1)^0,w,c
  3730   00164A  22DA               	addwfc	fsr2h,f,c
  3731   00164C  C003  FFDF         	movff	memset@c,indf2
  3732   001650  5005               	movf	memset@n^0,w,c
  3733   001652  240B               	addwf	memset@s^0,w,c
  3734   001654  6E07               	movwf	??_memset^0,c
  3735   001656  5006               	movf	(memset@n+1)^0,w,c
  3736   001658  200C               	addwfc	(memset@s+1)^0,w,c
  3737   00165A  6E08               	movwf	(??_memset+1)^0,c
  3738   00165C  0EFE               	movlw	254
  3739   00165E  2407               	addwf	??_memset^0,w,c
  3740   001660  6ED9               	movwf	fsr2l,c
  3741   001662  0EFF               	movlw	255
  3742   001664  2008               	addwfc	(??_memset+1)^0,w,c
  3743   001666  6EDA               	movwf	fsr2h,c
  3744   001668  C003  FFDF         	movff	memset@c,indf2
  3745   00166C  5005               	movf	memset@n^0,w,c
  3746   00166E  240B               	addwf	memset@s^0,w,c
  3747   001670  6E07               	movwf	??_memset^0,c
  3748   001672  5006               	movf	(memset@n+1)^0,w,c
  3749   001674  200C               	addwfc	(memset@s+1)^0,w,c
  3750   001676  6E08               	movwf	(??_memset+1)^0,c
  3751   001678  0EFD               	movlw	253
  3752   00167A  2407               	addwf	??_memset^0,w,c
  3753   00167C  6ED9               	movwf	fsr2l,c
  3754   00167E  0EFF               	movlw	255
  3755   001680  2008               	addwfc	(??_memset+1)^0,w,c
  3756   001682  6EDA               	movwf	fsr2h,c
  3757   001684  C003  FFDF         	movff	memset@c,indf2
  3758   001688  5006               	movf	(memset@n+1)^0,w,c
  3759   00168A  E107               	bnz	u2551
  3760   00168C  0E07               	movlw	7
  3761   00168E  5C05               	subwf	memset@n^0,w,c
  3762   001690  B0D8               	btfsc	status,0,c
  3763   001692  EF4D  F00B         	goto	u2551
  3764   001696  EF4F  F00B         	goto	u2550
  3765   00169A                     u2551:
  3766   00169A  EF51  F00B         	goto	l3302
  3767   00169E                     u2550:
  3768   00169E  EFA2  F00B         	goto	l1283
  3769   0016A2                     l3302:
  3770   0016A2  EE20 F003          	lfsr	2,3
  3771   0016A6  500B               	movf	memset@s^0,w,c
  3772   0016A8  26D9               	addwf	fsr2l,f,c
  3773   0016AA  500C               	movf	(memset@s+1)^0,w,c
  3774   0016AC  22DA               	addwfc	fsr2h,f,c
  3775   0016AE  C003  FFDF         	movff	memset@c,indf2
  3776   0016B2  5005               	movf	memset@n^0,w,c
  3777   0016B4  240B               	addwf	memset@s^0,w,c
  3778   0016B6  6E07               	movwf	??_memset^0,c
  3779   0016B8  5006               	movf	(memset@n+1)^0,w,c
  3780   0016BA  200C               	addwfc	(memset@s+1)^0,w,c
  3781   0016BC  6E08               	movwf	(??_memset+1)^0,c
  3782   0016BE  0EFC               	movlw	252
  3783   0016C0  2407               	addwf	??_memset^0,w,c
  3784   0016C2  6ED9               	movwf	fsr2l,c
  3785   0016C4  0EFF               	movlw	255
  3786   0016C6  2008               	addwfc	(??_memset+1)^0,w,c
  3787   0016C8  6EDA               	movwf	fsr2h,c
  3788   0016CA  C003  FFDF         	movff	memset@c,indf2
  3789   0016CE  5006               	movf	(memset@n+1)^0,w,c
  3790   0016D0  E107               	bnz	u2561
  3791   0016D2  0E09               	movlw	9
  3792   0016D4  5C05               	subwf	memset@n^0,w,c
  3793   0016D6  B0D8               	btfsc	status,0,c
  3794   0016D8  EF70  F00B         	goto	u2561
  3795   0016DC  EF72  F00B         	goto	u2560
  3796   0016E0                     u2561:
  3797   0016E0  EF74  F00B         	goto	l3308
  3798   0016E4                     u2560:
  3799   0016E4  EFA2  F00B         	goto	l1283
  3800   0016E8                     l3308:
  3801   0016E8  C00B  F007         	movff	memset@s,??_memset
  3802   0016EC  C00C  F008         	movff	memset@s+1,??_memset+1
  3803   0016F0  1E07               	comf	??_memset^0,f,c
  3804   0016F2  1E08               	comf	(??_memset+1)^0,f,c
  3805   0016F4  4A07               	infsnz	??_memset^0,f,c
  3806   0016F6  2A08               	incf	(??_memset+1)^0,f,c
  3807   0016F8  0E03               	movlw	3
  3808   0016FA  1407               	andwf	??_memset^0,w,c
  3809   0016FC  6E09               	movwf	memset@k^0,c
  3810   0016FE  6A0A               	clrf	(memset@k+1)^0,c
  3811   001700  5009               	movf	memset@k^0,w,c
  3812   001702  260B               	addwf	memset@s^0,f,c
  3813   001704  500A               	movf	(memset@k+1)^0,w,c
  3814   001706  220C               	addwfc	(memset@s+1)^0,f,c
  3815   001708  5009               	movf	memset@k^0,w,c
  3816   00170A  5E05               	subwf	memset@n^0,f,c
  3817   00170C  500A               	movf	(memset@k+1)^0,w,c
  3818   00170E  5A06               	subwfb	(memset@n+1)^0,f,c
  3819   001710  0EFC               	movlw	252
  3820   001712  1605               	andwf	memset@n^0,f,c
  3821   001714  0EFF               	movlw	255
  3822   001716  1606               	andwf	(memset@n+1)^0,f,c
  3823   001718  EF99  F00B         	goto	l3316
  3824   00171C                     l3310:
  3825   00171C  C00B  FFD9         	movff	memset@s,fsr2l
  3826   001720  C00C  FFDA         	movff	memset@s+1,fsr2h
  3827   001724  C003  FFDF         	movff	memset@c,indf2
  3828   001728  0605               	decf	memset@n^0,f,c
  3829   00172A  A0D8               	btfss	status,0,c
  3830   00172C  0606               	decf	(memset@n+1)^0,f,c
  3831   00172E  4A0B               	infsnz	memset@s^0,f,c
  3832   001730  2A0C               	incf	(memset@s+1)^0,f,c
  3833   001732                     l3316:
  3834   001732  5005               	movf	memset@n^0,w,c
  3835   001734  1006               	iorwf	(memset@n+1)^0,w,c
  3836   001736  A4D8               	btfss	status,2,c
  3837   001738  EFA0  F00B         	goto	u2571
  3838   00173C  EFA2  F00B         	goto	u2570
  3839   001740                     u2571:
  3840   001740  EF8E  F00B         	goto	l3310
  3841   001744                     u2570:
  3842   001744                     l1283:
  3843   001744  0012               	return		;funcret
  3844   001746                     __end_of_memset:
  3845                           	callstack 0
  3846                           
  3847 ;; *************** function _atoi *****************
  3848 ;; Defined at:
  3849 ;;		line 4 in file "C:\Program Files\Microchip\xc8\v2.41\pic\sources\c99\common\atoi.c"
  3850 ;; Parameters:    Size  Location     Type
  3851 ;;  s               2    6[COMRAM] PTR const unsigned char 
  3852 ;;		 -> num2(20), num1(20), 
  3853 ;; Auto vars:     Size  Location     Type
  3854 ;;  n               2   13[COMRAM] int 
  3855 ;;  neg             2   11[COMRAM] int 
  3856 ;; Return value:  Size  Location     Type
  3857 ;;                  2    6[COMRAM] int 
  3858 ;; Registers used:
  3859 ;;		wreg, fsr2l, fsr2h, status,2, status,0, prodl, prodh, cstack
  3860 ;; Tracked objects:
  3861 ;;		On entry : 0/0
  3862 ;;		On exit  : 0/0
  3863 ;;		Unchanged: 0/0
  3864 ;; Data sizes:     COMRAM   BANK0   BANK1   BANK2   BANK3   BANK4   BANK5   BANK6   BANK7   BANK8   BANK9  BANK10  BANK1
      +1  BANK12  BANK13  BANK14  BANK15
  3865 ;;      Params:         2       0       0       0       0       0       0       0       0       0       0       0       
      +0       0       0       0       0
  3866 ;;      Locals:         4       0       0       0       0       0       0       0       0       0       0       0       
      +0       0       0       0       0
  3867 ;;      Temps:          3       0       0       0       0       0       0       0       0       0       0       0       
      +0       0       0       0       0
  3868 ;;      Totals:         9       0       0       0       0       0       0       0       0       0       0       0       
      +0       0       0       0       0
  3869 ;;Total ram usage:        9 bytes
  3870 ;; Hardware stack levels used: 1
  3871 ;; Hardware stack levels required when called: 1
  3872 ;; This function calls:
  3873 ;;		___wmul
  3874 ;;		_isdigit
  3875 ;;		_isspace
  3876 ;; This function is called by:
  3877 ;;		_main
  3878 ;; This function uses a non-reentrant model
  3879 ;;
  3880                           
  3881                           	psect	text20
  3882   001746                     __ptext20:
  3883                           	callstack 0
  3884   001746                     _atoi:
  3885                           	callstack 29
  3886   001746  0E00               	movlw	0
  3887   001748  6E0F               	movwf	(atoi@n+1)^0,c
  3888   00174A  0E00               	movlw	0
  3889   00174C  6E0E               	movwf	atoi@n^0,c
  3890   00174E  0E00               	movlw	0
  3891   001750  6E0D               	movwf	(atoi@neg+1)^0,c
  3892   001752  0E00               	movlw	0
  3893   001754  6E0C               	movwf	atoi@neg^0,c
  3894   001756  EFAF  F00B         	goto	l3532
  3895   00175A                     l3528:
  3896   00175A  4A07               	infsnz	atoi@s^0,f,c
  3897   00175C  2A08               	incf	(atoi@s+1)^0,f,c
  3898   00175E                     l3532:
  3899   00175E  C007  FFD9         	movff	atoi@s,fsr2l
  3900   001762  C008  FFDA         	movff	atoi@s+1,fsr2h
  3901   001766  0E20               	movlw	32
  3902   001768  18DE               	xorwf	postinc2,w,c
  3903   00176A  B4D8               	btfsc	status,2,c
  3904   00176C  EFBA  F00B         	goto	u2831
  3905   001770  EFBC  F00B         	goto	u2830
  3906   001774                     u2831:
  3907   001774  EFAD  F00B         	goto	l3528
  3908   001778                     u2830:
  3909   001778  C007  FFD9         	movff	atoi@s,fsr2l
  3910   00177C  C008  FFDA         	movff	atoi@s+1,fsr2h
  3911   001780  50DF               	movf	indf2,w,c
  3912   001782  6E09               	movwf	??_atoi^0,c
  3913   001784  0EF7               	movlw	247
  3914   001786  2409               	addwf	??_atoi^0,w,c
  3915   001788  6E0A               	movwf	(??_atoi+1)^0,c
  3916   00178A  6A0B               	clrf	(??_atoi+2)^0,c
  3917   00178C  0EFF               	movlw	255
  3918   00178E  220B               	addwfc	(??_atoi+2)^0,f,c
  3919   001790  500B               	movf	(??_atoi+2)^0,w,c
  3920   001792  E109               	bnz	u2840
  3921   001794  0E05               	movlw	5
  3922   001796  5C0A               	subwf	(??_atoi+1)^0,w,c
  3923   001798  A0D8               	btfss	status,0,c
  3924   00179A  EFD1  F00B         	goto	u2841
  3925   00179E  EFD3  F00B         	goto	u2840
  3926   0017A2                     u2841:
  3927   0017A2  EFAD  F00B         	goto	l3528
  3928   0017A6                     u2840:
  3929   0017A6  EFDD  F00B         	goto	l3540
  3930   0017AA                     l3536:
  3931   0017AA  0E00               	movlw	0
  3932   0017AC  6E0D               	movwf	(atoi@neg+1)^0,c
  3933   0017AE  0E01               	movlw	1
  3934   0017B0  6E0C               	movwf	atoi@neg^0,c
  3935   0017B2                     l3538:
  3936   0017B2  4A07               	infsnz	atoi@s^0,f,c
  3937   0017B4  2A08               	incf	(atoi@s+1)^0,f,c
  3938   0017B6  EF12  F00C         	goto	l3548
  3939   0017BA                     l3540:
  3940   0017BA  C007  FFD9         	movff	atoi@s,fsr2l
  3941   0017BE  C008  FFDA         	movff	atoi@s+1,fsr2h
  3942   0017C2  50DF               	movf	indf2,w,c
  3943   0017C4  6E09               	movwf	??_atoi^0,c
  3944   0017C6  6A0A               	clrf	(??_atoi+1)^0,c
  3945                           
  3946                           ; Switch on 2 bytes has been partitioned into a top level switch of size 1, and 1 sub-sw
      +                          itches
  3947                           ; Switch size 1, requested type "simple"
  3948                           ; Number of cases is 1, Range of values is 0 to 0
  3949                           ; switch strategies available:
  3950                           ; Name         Instructions Cycles
  3951                           ; simple_byte            4     3 (average)
  3952                           ;	Chosen strategy is simple_byte
  3953   0017C8  500A               	movf	(??_atoi+1)^0,w,c
  3954   0017CA  0A00               	xorlw	0	; case 0
  3955   0017CC  B4D8               	btfsc	status,2,c
  3956   0017CE  EFEB  F00B         	goto	l4258
  3957   0017D2  EF12  F00C         	goto	l3548
  3958   0017D6                     l4258:
  3959                           
  3960                           ; Switch size 1, requested type "simple"
  3961                           ; Number of cases is 2, Range of values is 43 to 45
  3962                           ; switch strategies available:
  3963                           ; Name         Instructions Cycles
  3964                           ; simple_byte            7     4 (average)
  3965                           ;	Chosen strategy is simple_byte
  3966   0017D6  5009               	movf	??_atoi^0,w,c
  3967   0017D8  0A2B               	xorlw	43	; case 43
  3968   0017DA  B4D8               	btfsc	status,2,c
  3969   0017DC  EFD9  F00B         	goto	l3538
  3970   0017E0  0A06               	xorlw	6	; case 45
  3971   0017E2  B4D8               	btfsc	status,2,c
  3972   0017E4  EFD5  F00B         	goto	l3536
  3973   0017E8  EF12  F00C         	goto	l3548
  3974   0017EC                     l3542:
  3975   0017EC  C00E  F001         	movff	atoi@n,___wmul@multiplier
  3976   0017F0  C00F  F002         	movff	atoi@n+1,___wmul@multiplier+1
  3977   0017F4  0E00               	movlw	0
  3978   0017F6  6E04               	movwf	(___wmul@multiplicand+1)^0,c
  3979   0017F8  0E0A               	movlw	10
  3980   0017FA  6E03               	movwf	___wmul@multiplicand^0,c
  3981   0017FC  EC32  F014         	call	___wmul	;wreg free
  3982   001800  C007  FFD9         	movff	atoi@s,fsr2l
  3983   001804  C008  FFDA         	movff	atoi@s+1,fsr2h
  3984   001808  50DF               	movf	indf2,w,c
  3985   00180A  6E09               	movwf	??_atoi^0,c
  3986   00180C  5009               	movf	??_atoi^0,w,c
  3987   00180E  5E01               	subwf	?___wmul^0,f,c
  3988   001810  0E00               	movlw	0
  3989   001812  5A02               	subwfb	(?___wmul+1)^0,f,c
  3990   001814  0E30               	movlw	48
  3991   001816  2401               	addwf	?___wmul^0,w,c
  3992   001818  6E0E               	movwf	atoi@n^0,c
  3993   00181A  0E00               	movlw	0
  3994   00181C  2002               	addwfc	(?___wmul+1)^0,w,c
  3995   00181E  6E0F               	movwf	(atoi@n+1)^0,c
  3996   001820  EFD9  F00B         	goto	l3538
  3997   001824                     l3548:
  3998   001824  C007  FFD9         	movff	atoi@s,fsr2l
  3999   001828  C008  FFDA         	movff	atoi@s+1,fsr2h
  4000   00182C  50DF               	movf	indf2,w,c
  4001   00182E  6E09               	movwf	??_atoi^0,c
  4002   001830  0ED0               	movlw	208
  4003   001832  2409               	addwf	??_atoi^0,w,c
  4004   001834  6E0A               	movwf	(??_atoi+1)^0,c
  4005   001836  6A0B               	clrf	(??_atoi+2)^0,c
  4006   001838  0EFF               	movlw	255
  4007   00183A  220B               	addwfc	(??_atoi+2)^0,f,c
  4008   00183C  500B               	movf	(??_atoi+2)^0,w,c
  4009   00183E  E109               	bnz	u2850
  4010   001840  0E0A               	movlw	10
  4011   001842  5C0A               	subwf	(??_atoi+1)^0,w,c
  4012   001844  A0D8               	btfss	status,0,c
  4013   001846  EF27  F00C         	goto	u2851
  4014   00184A  EF29  F00C         	goto	u2850
  4015   00184E                     u2851:
  4016   00184E  EFF6  F00B         	goto	l3542
  4017   001852                     u2850:
  4018   001852  500C               	movf	atoi@neg^0,w,c
  4019   001854  100D               	iorwf	(atoi@neg+1)^0,w,c
  4020   001856  A4D8               	btfss	status,2,c
  4021   001858  EF30  F00C         	goto	u2861
  4022   00185C  EF32  F00C         	goto	u2860
  4023   001860                     u2861:
  4024   001860  EF40  F00C         	goto	l1262
  4025   001864                     u2860:
  4026   001864  C00E  F009         	movff	atoi@n,??_atoi
  4027   001868  C00F  F00A         	movff	atoi@n+1,??_atoi+1
  4028   00186C  1E09               	comf	??_atoi^0,f,c
  4029   00186E  1E0A               	comf	(??_atoi+1)^0,f,c
  4030   001870  4A09               	infsnz	??_atoi^0,f,c
  4031   001872  2A0A               	incf	(??_atoi+1)^0,f,c
  4032   001874  C009  F007         	movff	??_atoi,?_atoi
  4033   001878  C00A  F008         	movff	??_atoi+1,?_atoi+1
  4034   00187C  EF44  F00C         	goto	l1265
  4035   001880                     l1262:
  4036   001880  C00E  F007         	movff	atoi@n,?_atoi
  4037   001884  C00F  F008         	movff	atoi@n+1,?_atoi+1
  4038   001888                     l1265:
  4039   001888  0012               	return		;funcret
  4040   00188A                     __end_of_atoi:
  4041                           	callstack 0
  4042                           
  4043 ;; *************** function _isspace *****************
  4044 ;; Defined at:
  4045 ;;		line 5 in file "C:\Program Files\Microchip\xc8\v2.41\pic\sources\c99\common\isspace.c"
  4046 ;; Parameters:    Size  Location     Type
  4047 ;;  c               2    0[COMRAM] int 
  4048 ;; Auto vars:     Size  Location     Type
  4049 ;;		None
  4050 ;; Return value:  Size  Location     Type
  4051 ;;                  2    0[COMRAM] int 
  4052 ;; Registers used:
  4053 ;;		wreg, status,2, status,0
  4054 ;; Tracked objects:
  4055 ;;		On entry : 0/0
  4056 ;;		On exit  : 0/0
  4057 ;;		Unchanged: 0/0
  4058 ;; Data sizes:     COMRAM   BANK0   BANK1   BANK2   BANK3   BANK4   BANK5   BANK6   BANK7   BANK8   BANK9  BANK10  BANK1
      +1  BANK12  BANK13  BANK14  BANK15
  4059 ;;      Params:         2       0       0       0       0       0       0       0       0       0       0       0       
      +0       0       0       0       0
  4060 ;;      Locals:         1       0       0       0       0       0       0       0       0       0       0       0       
      +0       0       0       0       0
  4061 ;;      Temps:          2       0       0       0       0       0       0       0       0       0       0       0       
      +0       0       0       0       0
  4062 ;;      Totals:         5       0       0       0       0       0       0       0       0       0       0       0       
      +0       0       0       0       0
  4063 ;;Total ram usage:        5 bytes
  4064 ;; Hardware stack levels used: 1
  4065 ;; This function calls:
  4066 ;;		Nothing
  4067 ;; This function is called by:
  4068 ;;		_atoi
  4069 ;; This function uses a non-reentrant model
  4070 ;;
  4071                           
  4072                           	psect	text21
  4073   00276E                     __ptext21:
  4074                           	callstack 0
  4075   00276E                     _isspace:
  4076                           	callstack 29
  4077   00276E  0E01               	movlw	1
  4078   002770  6E05               	movwf	_isspace$1333^0,c
  4079   002772  0E20               	movlw	32
  4080   002774  1801               	xorwf	isspace@c^0,w,c
  4081   002776  1002               	iorwf	(isspace@c+1)^0,w,c
  4082   002778  B4D8               	btfsc	status,2,c
  4083   00277A  EFC1  F013         	goto	u2621
  4084   00277E  EFC3  F013         	goto	u2620
  4085   002782                     u2621:
  4086   002782  EFD6  F013         	goto	l3366
  4087   002786                     u2620:
  4088   002786  0EF7               	movlw	247
  4089   002788  2401               	addwf	isspace@c^0,w,c
  4090   00278A  6E03               	movwf	??_isspace^0,c
  4091   00278C  0EFF               	movlw	255
  4092   00278E  2002               	addwfc	(isspace@c+1)^0,w,c
  4093   002790  6E04               	movwf	(??_isspace+1)^0,c
  4094   002792  5004               	movf	(??_isspace+1)^0,w,c
  4095   002794  E109               	bnz	u2630
  4096   002796  0E05               	movlw	5
  4097   002798  5C03               	subwf	??_isspace^0,w,c
  4098   00279A  A0D8               	btfss	status,0,c
  4099   00279C  EFD2  F013         	goto	u2631
  4100   0027A0  EFD4  F013         	goto	u2630
  4101   0027A4                     u2631:
  4102   0027A4  EFD6  F013         	goto	l3366
  4103   0027A8                     u2630:
  4104   0027A8  0E00               	movlw	0
  4105   0027AA  6E05               	movwf	_isspace$1333^0,c
  4106   0027AC                     l3366:
  4107   0027AC  C005  F001         	movff	_isspace$1333,?_isspace
  4108   0027B0  6A02               	clrf	(?_isspace+1)^0,c
  4109   0027B2  0012               	return		;funcret
  4110   0027B4                     __end_of_isspace:
  4111                           	callstack 0
  4112                           
  4113 ;; *************** function _isdigit *****************
  4114 ;; Defined at:
  4115 ;;		line 5 in file "C:\Program Files\Microchip\xc8\v2.41\pic\sources\c99\common\isdigit.c"
  4116 ;; Parameters:    Size  Location     Type
  4117 ;;  c               2    0[COMRAM] int 
  4118 ;; Auto vars:     Size  Location     Type
  4119 ;;		None
  4120 ;; Return value:  Size  Location     Type
  4121 ;;                  2    0[COMRAM] int 
  4122 ;; Registers used:
  4123 ;;		wreg, status,2, status,0
  4124 ;; Tracked objects:
  4125 ;;		On entry : 0/0
  4126 ;;		On exit  : 0/0
  4127 ;;		Unchanged: 0/0
  4128 ;; Data sizes:     COMRAM   BANK0   BANK1   BANK2   BANK3   BANK4   BANK5   BANK6   BANK7   BANK8   BANK9  BANK10  BANK1
      +1  BANK12  BANK13  BANK14  BANK15
  4129 ;;      Params:         2       0       0       0       0       0       0       0       0       0       0       0       
      +0       0       0       0       0
  4130 ;;      Locals:         0       0       0       0       0       0       0       0       0       0       0       0       
      +0       0       0       0       0
  4131 ;;      Temps:          2       0       0       0       0       0       0       0       0       0       0       0       
      +0       0       0       0       0
  4132 ;;      Totals:         4       0       0       0       0       0       0       0       0       0       0       0       
      +0       0       0       0       0
  4133 ;;Total ram usage:        4 bytes
  4134 ;; Hardware stack levels used: 1
  4135 ;; This function calls:
  4136 ;;		Nothing
  4137 ;; This function is called by:
  4138 ;;		_atoi
  4139 ;; This function uses a non-reentrant model
  4140 ;;
  4141                           
  4142                           	psect	text22
  4143   002838                     __ptext22:
  4144                           	callstack 0
  4145   002838                     _isdigit:
  4146                           	callstack 29
  4147   002838  0ED0               	movlw	208
  4148   00283A  2401               	addwf	isdigit@c^0,w,c
  4149   00283C  6E03               	movwf	??_isdigit^0,c
  4150   00283E  0EFF               	movlw	255
  4151   002840  2002               	addwfc	(isdigit@c+1)^0,w,c
  4152   002842  6E04               	movwf	(??_isdigit+1)^0,c
  4153   002844  5004               	movf	(??_isdigit+1)^0,w,c
  4154   002846  E10A               	bnz	u2640
  4155   002848  0E0A               	movlw	10
  4156   00284A  5C03               	subwf	??_isdigit^0,w,c
  4157   00284C  A0D8               	btfss	status,0,c
  4158   00284E  EF2B  F014         	goto	u2641
  4159   002852  EF2E  F014         	goto	u2640
  4160   002856                     u2641:
  4161   002856  0E01               	movlw	1
  4162   002858  EF2F  F014         	goto	u2650
  4163   00285C                     u2640:
  4164   00285C  0E00               	movlw	0
  4165   00285E                     u2650:
  4166   00285E  6E01               	movwf	?_isdigit^0,c
  4167   002860  6A02               	clrf	(?_isdigit+1)^0,c
  4168   002862  0012               	return		;funcret
  4169   002864                     __end_of_isdigit:
  4170                           	callstack 0
  4171                           
  4172 ;; *************** function ___wmul *****************
  4173 ;; Defined at:
  4174 ;;		line 15 in file "C:\Program Files\Microchip\xc8\v2.41\pic\sources\c99\common\Umul16.c"
  4175 ;; Parameters:    Size  Location     Type
  4176 ;;  multiplier      2    0[COMRAM] unsigned int 
  4177 ;;  multiplicand    2    2[COMRAM] unsigned int 
  4178 ;; Auto vars:     Size  Location     Type
  4179 ;;  product         2    4[COMRAM] unsigned int 
  4180 ;; Return value:  Size  Location     Type
  4181 ;;                  2    0[COMRAM] unsigned int 
  4182 ;; Registers used:
  4183 ;;		wreg, status,2, status,0, prodl, prodh
  4184 ;; Tracked objects:
  4185 ;;		On entry : 0/0
  4186 ;;		On exit  : 0/0
  4187 ;;		Unchanged: 0/0
  4188 ;; Data sizes:     COMRAM   BANK0   BANK1   BANK2   BANK3   BANK4   BANK5   BANK6   BANK7   BANK8   BANK9  BANK10  BANK1
      +1  BANK12  BANK13  BANK14  BANK15
  4189 ;;      Params:         4       0       0       0       0       0       0       0       0       0       0       0       
      +0       0       0       0       0
  4190 ;;      Locals:         2       0       0       0       0       0       0       0       0       0       0       0       
      +0       0       0       0       0
  4191 ;;      Temps:          0       0       0       0       0       0       0       0       0       0       0       0       
      +0       0       0       0       0
  4192 ;;      Totals:         6       0       0       0       0       0       0       0       0       0       0       0       
      +0       0       0       0       0
  4193 ;;Total ram usage:        6 bytes
  4194 ;; Hardware stack levels used: 1
  4195 ;; This function calls:
  4196 ;;		Nothing
  4197 ;; This function is called by:
  4198 ;;		_main
  4199 ;;		_atoi
  4200 ;; This function uses a non-reentrant model
  4201 ;;
  4202                           
  4203                           	psect	text23
  4204   002864                     __ptext23:
  4205                           	callstack 0
  4206   002864                     ___wmul:
  4207                           	callstack 29
  4208   002864  5001               	movf	___wmul@multiplier^0,w,c
  4209   002866  0203               	mulwf	___wmul@multiplicand^0,c
  4210   002868  CFF3 F005          	movff	prodl,___wmul@product
  4211   00286C  CFF4 F006          	movff	prodh,___wmul@product+1
  4212   002870  5001               	movf	___wmul@multiplier^0,w,c
  4213   002872  0204               	mulwf	(___wmul@multiplicand+1)^0,c
  4214   002874  50F3               	movf	243,w,c
  4215   002876  2606               	addwf	(___wmul@product+1)^0,f,c
  4216   002878  5002               	movf	(___wmul@multiplier+1)^0,w,c
  4217   00287A  0203               	mulwf	___wmul@multiplicand^0,c
  4218   00287C  50F3               	movf	243,w,c
  4219   00287E  2606               	addwf	(___wmul@product+1)^0,f,c
  4220   002880  C005  F001         	movff	___wmul@product,?___wmul
  4221   002884  C006  F002         	movff	___wmul@product+1,?___wmul+1
  4222   002888  0012               	return		;funcret
  4223   00288A                     __end_of___wmul:
  4224                           	callstack 0
  4225                           
  4226 ;; *************** function _application_initialize *****************
  4227 ;; Defined at:
  4228 ;;		line 120 in file "application.c"
  4229 ;; Parameters:    Size  Location     Type
  4230 ;;		None
  4231 ;; Auto vars:     Size  Location     Type
  4232 ;;		None
  4233 ;; Return value:  Size  Location     Type
  4234 ;;                  1    wreg      void 
  4235 ;; Registers used:
  4236 ;;		wreg, fsr2l, fsr2h, status,2, status,0, prodl, prodh, cstack
  4237 ;; Tracked objects:
  4238 ;;		On entry : 0/0
  4239 ;;		On exit  : 0/0
  4240 ;;		Unchanged: 0/0
  4241 ;; Data sizes:     COMRAM   BANK0   BANK1   BANK2   BANK3   BANK4   BANK5   BANK6   BANK7   BANK8   BANK9  BANK10  BANK1
      +1  BANK12  BANK13  BANK14  BANK15
  4242 ;;      Params:         0       0       0       0       0       0       0       0       0       0       0       0       
      +0       0       0       0       0
  4243 ;;      Locals:         0       0       0       0       0       0       0       0       0       0       0       0       
      +0       0       0       0       0
  4244 ;;      Temps:          0       0       0       0       0       0       0       0       0       0       0       0       
      +0       0       0       0       0
  4245 ;;      Totals:         0       0       0       0       0       0       0       0       0       0       0       0       
      +0       0       0       0       0
  4246 ;;Total ram usage:        0 bytes
  4247 ;; Hardware stack levels used: 1
  4248 ;; Hardware stack levels required when called: 5
  4249 ;; This function calls:
  4250 ;;		_ecu_initialize
  4251 ;; This function is called by:
  4252 ;;		_main
  4253 ;; This function uses a non-reentrant model
  4254 ;;
  4255                           
  4256                           	psect	text24
  4257   0028D2                     __ptext24:
  4258                           	callstack 0
  4259   0028D2                     _application_initialize:
  4260                           	callstack 25
  4261   0028D2                     
  4262                           ;application.c: 122:     ecu_initialize();
  4263   0028D2  EC54  F014         	call	_ecu_initialize	;wreg free
  4264   0028D6  0012               	return		;funcret
  4265   0028D8                     __end_of_application_initialize:
  4266                           	callstack 0
  4267                           
  4268 ;; *************** function _ecu_initialize *****************
  4269 ;; Defined at:
  4270 ;;		line 79 in file "ECU_layer/ecu_initialize.c"
  4271 ;; Parameters:    Size  Location     Type
  4272 ;;		None
  4273 ;; Auto vars:     Size  Location     Type
  4274 ;;  ret             1    0        unsigned char 
  4275 ;; Return value:  Size  Location     Type
  4276 ;;                  1    wreg      void 
  4277 ;; Registers used:
  4278 ;;		wreg, fsr2l, fsr2h, status,2, status,0, prodl, prodh, cstack
  4279 ;; Tracked objects:
  4280 ;;		On entry : 0/0
  4281 ;;		On exit  : 0/0
  4282 ;;		Unchanged: 0/0
  4283 ;; Data sizes:     COMRAM   BANK0   BANK1   BANK2   BANK3   BANK4   BANK5   BANK6   BANK7   BANK8   BANK9  BANK10  BANK1
      +1  BANK12  BANK13  BANK14  BANK15
  4284 ;;      Params:         0       0       0       0       0       0       0       0       0       0       0       0       
      +0       0       0       0       0
  4285 ;;      Locals:         0       0       0       0       0       0       0       0       0       0       0       0       
      +0       0       0       0       0
  4286 ;;      Temps:          0       0       0       0       0       0       0       0       0       0       0       0       
      +0       0       0       0       0
  4287 ;;      Totals:         0       0       0       0       0       0       0       0       0       0       0       0       
      +0       0       0       0       0
  4288 ;;Total ram usage:        0 bytes
  4289 ;; Hardware stack levels used: 1
  4290 ;; Hardware stack levels required when called: 4
  4291 ;; This function calls:
  4292 ;;		_keypad_initialize
  4293 ;;		_lcd_4bit_initialize
  4294 ;; This function is called by:
  4295 ;;		_application_initialize
  4296 ;; This function uses a non-reentrant model
  4297 ;;
  4298                           
  4299                           	psect	text25
  4300   0028A8                     __ptext25:
  4301                           	callstack 0
  4302   0028A8                     _ecu_initialize:
  4303                           	callstack 25
  4304   0028A8  0E79               	movlw	low _lcd_1
  4305   0028AA  6E17               	movwf	lcd_4bit_initialize@lcd_obj^0,c
  4306   0028AC  0E00               	movlw	high _lcd_1
  4307   0028AE  6E18               	movwf	(lcd_4bit_initialize@lcd_obj+1)^0,c
  4308   0028B0  ECE7  F00C         	call	_lcd_4bit_initialize	;wreg free
  4309   0028B4  0E71               	movlw	low _kp1
  4310   0028B6  6E0F               	movwf	keypad_initialize@keypad^0,c
  4311   0028B8  0E00               	movlw	high _kp1
  4312   0028BA  6E10               	movwf	(keypad_initialize@keypad+1)^0,c
  4313   0028BC  EC95  F011         	call	_keypad_initialize	;wreg free
  4314   0028C0  0012               	return		;funcret
  4315   0028C2                     __end_of_ecu_initialize:
  4316                           	callstack 0
  4317                           
  4318 ;; *************** function _lcd_4bit_initialize *****************
  4319 ;; Defined at:
  4320 ;;		line 24 in file "ECU_layer/Char_lCD/ecu_chr_lcd.c"
  4321 ;; Parameters:    Size  Location     Type
  4322 ;;  lcd_obj         2   22[COMRAM] PTR const struct .
  4323 ;;		 -> lcd_1(6), 
  4324 ;; Auto vars:     Size  Location     Type
  4325 ;;  i               2   25[COMRAM] int 
  4326 ;;  ret             1   27[COMRAM] unsigned char 
  4327 ;; Return value:  Size  Location     Type
  4328 ;;                  1    wreg      unsigned char 
  4329 ;; Registers used:
  4330 ;;		wreg, fsr2l, fsr2h, status,2, status,0, prodl, prodh, cstack
  4331 ;; Tracked objects:
  4332 ;;		On entry : 0/0
  4333 ;;		On exit  : 0/0
  4334 ;;		Unchanged: 0/0
  4335 ;; Data sizes:     COMRAM   BANK0   BANK1   BANK2   BANK3   BANK4   BANK5   BANK6   BANK7   BANK8   BANK9  BANK10  BANK1
      +1  BANK12  BANK13  BANK14  BANK15
  4336 ;;      Params:         2       0       0       0       0       0       0       0       0       0       0       0       
      +0       0       0       0       0
  4337 ;;      Locals:         3       0       0       0       0       0       0       0       0       0       0       0       
      +0       0       0       0       0
  4338 ;;      Temps:          1       0       0       0       0       0       0       0       0       0       0       0       
      +0       0       0       0       0
  4339 ;;      Totals:         6       0       0       0       0       0       0       0       0       0       0       0       
      +0       0       0       0       0
  4340 ;;Total ram usage:        6 bytes
  4341 ;; Hardware stack levels used: 1
  4342 ;; Hardware stack levels required when called: 3
  4343 ;; This function calls:
  4344 ;;		_gpio_pin_initialize
  4345 ;;		_lcd_4bit_send_command
  4346 ;; This function is called by:
  4347 ;;		_ecu_initialize
  4348 ;; This function uses a non-reentrant model
  4349 ;;
  4350                           
  4351                           	psect	text26
  4352   0019CE                     __ptext26:
  4353                           	callstack 0
  4354   0019CE                     _lcd_4bit_initialize:
  4355                           	callstack 25
  4356   0019CE                     
  4357                           ;ECU_layer/Char_lCD/ecu_chr_lcd.c: 27:     if(lcd_obj == ((void*)0))
  4358   0019CE  5017               	movf	lcd_4bit_initialize@lcd_obj^0,w,c
  4359   0019D0  1018               	iorwf	(lcd_4bit_initialize@lcd_obj+1)^0,w,c
  4360   0019D2  A4D8               	btfss	status,2,c
  4361   0019D4  EFEE  F00C         	goto	u2361
  4362   0019D8  EFF0  F00C         	goto	u2360
  4363   0019DC                     u2361:
  4364   0019DC  EFF4  F00C         	goto	l3106
  4365   0019E0                     u2360:
  4366   0019E0                     
  4367                           ;ECU_layer/Char_lCD/ecu_chr_lcd.c: 28:     {;ECU_layer/Char_lCD/ecu_chr_lcd.c: 29:      
      +                             ret = (Std_ReturnType)0x00;
  4368   0019E0  0E00               	movlw	0
  4369   0019E2  6E1C               	movwf	lcd_4bit_initialize@ret^0,c
  4370                           
  4371                           ;ECU_layer/Char_lCD/ecu_chr_lcd.c: 30:     }
  4372   0019E4  EF7E  F00D         	goto	l3142
  4373   0019E8                     l3106:
  4374                           
  4375                           ;ECU_layer/Char_lCD/ecu_chr_lcd.c: 32:     {;ECU_layer/Char_lCD/ecu_chr_lcd.c: 33:      
      +                             ret = gpio_pin_initialize(&(lcd_obj->lcd_enable));
  4376   0019E8  0E04               	movlw	4
  4377   0019EA  2417               	addwf	lcd_4bit_initialize@lcd_obj^0,w,c
  4378   0019EC  6E0B               	movwf	gpio_pin_initialize@pin^0,c
  4379   0019EE  0E00               	movlw	0
  4380   0019F0  2018               	addwfc	(lcd_4bit_initialize@lcd_obj+1)^0,w,c
  4381   0019F2  6E0C               	movwf	(gpio_pin_initialize@pin+1)^0,c
  4382   0019F4  EC82  F012         	call	_gpio_pin_initialize	;wreg free
  4383   0019F8  6E1C               	movwf	lcd_4bit_initialize@ret^0,c
  4384                           
  4385                           ;ECU_layer/Char_lCD/ecu_chr_lcd.c: 34:         ret = gpio_pin_initialize(&(lcd_obj->lcd_
      +                          rs));
  4386   0019FA  0E05               	movlw	5
  4387   0019FC  2417               	addwf	lcd_4bit_initialize@lcd_obj^0,w,c
  4388   0019FE  6E0B               	movwf	gpio_pin_initialize@pin^0,c
  4389   001A00  0E00               	movlw	0
  4390   001A02  2018               	addwfc	(lcd_4bit_initialize@lcd_obj+1)^0,w,c
  4391   001A04  6E0C               	movwf	(gpio_pin_initialize@pin+1)^0,c
  4392   001A06  EC82  F012         	call	_gpio_pin_initialize	;wreg free
  4393   001A0A  6E1C               	movwf	lcd_4bit_initialize@ret^0,c
  4394   001A0C                     
  4395                           ;ECU_layer/Char_lCD/ecu_chr_lcd.c: 36:         for(int i=0;i<4;i++)
  4396   001A0C  0E00               	movlw	0
  4397   001A0E  6E1B               	movwf	(lcd_4bit_initialize@i+1)^0,c
  4398   001A10  0E00               	movlw	0
  4399   001A12  6E1A               	movwf	lcd_4bit_initialize@i^0,c
  4400   001A14                     l3114:
  4401   001A14  501A               	movf	lcd_4bit_initialize@i^0,w,c
  4402   001A16  2417               	addwf	lcd_4bit_initialize@lcd_obj^0,w,c
  4403   001A18  6E0B               	movwf	gpio_pin_initialize@pin^0,c
  4404   001A1A  501B               	movf	(lcd_4bit_initialize@i+1)^0,w,c
  4405   001A1C  2018               	addwfc	(lcd_4bit_initialize@lcd_obj+1)^0,w,c
  4406   001A1E  6E0C               	movwf	(gpio_pin_initialize@pin+1)^0,c
  4407   001A20  EC82  F012         	call	_gpio_pin_initialize	;wreg free
  4408   001A24                     
  4409                           ;ECU_layer/Char_lCD/ecu_chr_lcd.c: 39:         }
  4410   001A24  4A1A               	infsnz	lcd_4bit_initialize@i^0,f,c
  4411   001A26  2A1B               	incf	(lcd_4bit_initialize@i+1)^0,f,c
  4412   001A28  BE1B               	btfsc	(lcd_4bit_initialize@i+1)^0,7,c
  4413   001A2A  EF20  F00D         	goto	u2371
  4414   001A2E  501B               	movf	(lcd_4bit_initialize@i+1)^0,w,c
  4415   001A30  E109               	bnz	u2370
  4416   001A32  0E04               	movlw	4
  4417   001A34  5C1A               	subwf	lcd_4bit_initialize@i^0,w,c
  4418   001A36  A0D8               	btfss	status,0,c
  4419   001A38  EF20  F00D         	goto	u2371
  4420   001A3C  EF22  F00D         	goto	u2370
  4421   001A40                     u2371:
  4422   001A40  EF0A  F00D         	goto	l3114
  4423   001A44                     u2370:
  4424   001A44                     
  4425                           ;ECU_layer/Char_lCD/ecu_chr_lcd.c: 40:          _delay((unsigned long)((20)*(4000000UL/4
      +                          000.0)));
  4426   001A44  0E1A               	movlw	26
  4427   001A46  6E19               	movwf	??_lcd_4bit_initialize^0,c
  4428   001A48  0EF8               	movlw	248
  4429   001A4A                     u3727:
  4430   001A4A  2EE8               	decfsz	wreg,f,c
  4431   001A4C  D7FE               	bra	u3727
  4432   001A4E  2E19               	decfsz	??_lcd_4bit_initialize^0,f,c
  4433   001A50  D7FC               	bra	u3727
  4434   001A52  D000               	nop2	
  4435   001A54  C017  F013         	movff	lcd_4bit_initialize@lcd_obj,lcd_4bit_send_command@lcd_obj
  4436   001A58  C018  F014         	movff	lcd_4bit_initialize@lcd_obj+1,lcd_4bit_send_command@lcd_obj+1
  4437   001A5C  0E38               	movlw	56
  4438   001A5E  6E15               	movwf	lcd_4bit_send_command@command^0,c
  4439   001A60  EC0C  F012         	call	_lcd_4bit_send_command	;wreg free
  4440   001A64                     
  4441                           ;ECU_layer/Char_lCD/ecu_chr_lcd.c: 42:         _delay((unsigned long)((5)*(4000000UL/400
      +                          0.0)));
  4442   001A64  0E07               	movlw	7
  4443   001A66  6E19               	movwf	??_lcd_4bit_initialize^0,c
  4444   001A68  0E7D               	movlw	125
  4445   001A6A                     u3737:
  4446   001A6A  2EE8               	decfsz	wreg,f,c
  4447   001A6C  D7FE               	bra	u3737
  4448   001A6E  2E19               	decfsz	??_lcd_4bit_initialize^0,f,c
  4449   001A70  D7FC               	bra	u3737
  4450   001A72  F000               	nop	
  4451   001A74  C017  F013         	movff	lcd_4bit_initialize@lcd_obj,lcd_4bit_send_command@lcd_obj
  4452   001A78  C018  F014         	movff	lcd_4bit_initialize@lcd_obj+1,lcd_4bit_send_command@lcd_obj+1
  4453   001A7C  0E38               	movlw	56
  4454   001A7E  6E15               	movwf	lcd_4bit_send_command@command^0,c
  4455   001A80  EC0C  F012         	call	_lcd_4bit_send_command	;wreg free
  4456   001A84                     
  4457                           ;ECU_layer/Char_lCD/ecu_chr_lcd.c: 44:         _delay((unsigned long)((150)*(4000000UL/4
      +                          000000.0)));
  4458   001A84  0E32               	movlw	50
  4459   001A86                     u3747:
  4460   001A86  2EE8               	decfsz	wreg,f,c
  4461   001A88  D7FE               	bra	u3747
  4462   001A8A  C017  F013         	movff	lcd_4bit_initialize@lcd_obj,lcd_4bit_send_command@lcd_obj
  4463   001A8E  C018  F014         	movff	lcd_4bit_initialize@lcd_obj+1,lcd_4bit_send_command@lcd_obj+1
  4464   001A92  0E38               	movlw	56
  4465   001A94  6E15               	movwf	lcd_4bit_send_command@command^0,c
  4466   001A96  EC0C  F012         	call	_lcd_4bit_send_command	;wreg free
  4467   001A9A  C017  F013         	movff	lcd_4bit_initialize@lcd_obj,lcd_4bit_send_command@lcd_obj
  4468   001A9E  C018  F014         	movff	lcd_4bit_initialize@lcd_obj+1,lcd_4bit_send_command@lcd_obj+1
  4469   001AA2  0E01               	movlw	1
  4470   001AA4  6E15               	movwf	lcd_4bit_send_command@command^0,c
  4471   001AA6  EC0C  F012         	call	_lcd_4bit_send_command	;wreg free
  4472   001AAA  C017  F013         	movff	lcd_4bit_initialize@lcd_obj,lcd_4bit_send_command@lcd_obj
  4473   001AAE  C018  F014         	movff	lcd_4bit_initialize@lcd_obj+1,lcd_4bit_send_command@lcd_obj+1
  4474   001AB2  0E02               	movlw	2
  4475   001AB4  6E15               	movwf	lcd_4bit_send_command@command^0,c
  4476   001AB6  EC0C  F012         	call	_lcd_4bit_send_command	;wreg free
  4477   001ABA  C017  F013         	movff	lcd_4bit_initialize@lcd_obj,lcd_4bit_send_command@lcd_obj
  4478   001ABE  C018  F014         	movff	lcd_4bit_initialize@lcd_obj+1,lcd_4bit_send_command@lcd_obj+1
  4479   001AC2  0E06               	movlw	6
  4480   001AC4  6E15               	movwf	lcd_4bit_send_command@command^0,c
  4481   001AC6  EC0C  F012         	call	_lcd_4bit_send_command	;wreg free
  4482   001ACA  C017  F013         	movff	lcd_4bit_initialize@lcd_obj,lcd_4bit_send_command@lcd_obj
  4483   001ACE  C018  F014         	movff	lcd_4bit_initialize@lcd_obj+1,lcd_4bit_send_command@lcd_obj+1
  4484   001AD2  0E0C               	movlw	12
  4485   001AD4  6E15               	movwf	lcd_4bit_send_command@command^0,c
  4486   001AD6  EC0C  F012         	call	_lcd_4bit_send_command	;wreg free
  4487   001ADA  C017  F013         	movff	lcd_4bit_initialize@lcd_obj,lcd_4bit_send_command@lcd_obj
  4488   001ADE  C018  F014         	movff	lcd_4bit_initialize@lcd_obj+1,lcd_4bit_send_command@lcd_obj+1
  4489   001AE2  0E28               	movlw	40
  4490   001AE4  6E15               	movwf	lcd_4bit_send_command@command^0,c
  4491   001AE6  EC0C  F012         	call	_lcd_4bit_send_command	;wreg free
  4492   001AEA                     
  4493                           ;ECU_layer/Char_lCD/ecu_chr_lcd.c: 51:         ret = lcd_4bit_send_command(lcd_obj,0x80)
      +                          ;
  4494   001AEA  C017  F013         	movff	lcd_4bit_initialize@lcd_obj,lcd_4bit_send_command@lcd_obj
  4495   001AEE  C018  F014         	movff	lcd_4bit_initialize@lcd_obj+1,lcd_4bit_send_command@lcd_obj+1
  4496   001AF2  0E80               	movlw	128
  4497   001AF4  6E15               	movwf	lcd_4bit_send_command@command^0,c
  4498   001AF6  EC0C  F012         	call	_lcd_4bit_send_command	;wreg free
  4499   001AFA  6E1C               	movwf	lcd_4bit_initialize@ret^0,c
  4500   001AFC                     l3142:
  4501                           
  4502                           ;ECU_layer/Char_lCD/ecu_chr_lcd.c: 55:     return ret;
  4503   001AFC  501C               	movf	lcd_4bit_initialize@ret^0,w,c
  4504   001AFE  0012               	return		;funcret
  4505   001B00                     __end_of_lcd_4bit_initialize:
  4506                           	callstack 0
  4507                           
  4508 ;; *************** function _lcd_4bit_send_command *****************
  4509 ;; Defined at:
  4510 ;;		line 66 in file "ECU_layer/Char_lCD/ecu_chr_lcd.c"
  4511 ;; Parameters:    Size  Location     Type
  4512 ;;  lcd_obj         2   18[COMRAM] PTR const struct .
  4513 ;;		 -> lcd_1(6), 
  4514 ;;  command         1   20[COMRAM] unsigned char 
  4515 ;; Auto vars:     Size  Location     Type
  4516 ;;  ret             1   21[COMRAM] unsigned char 
  4517 ;; Return value:  Size  Location     Type
  4518 ;;                  1    wreg      unsigned char 
  4519 ;; Registers used:
  4520 ;;		wreg, fsr2l, fsr2h, status,2, status,0, prodl, prodh, cstack
  4521 ;; Tracked objects:
  4522 ;;		On entry : 0/0
  4523 ;;		On exit  : 0/0
  4524 ;;		Unchanged: 0/0
  4525 ;; Data sizes:     COMRAM   BANK0   BANK1   BANK2   BANK3   BANK4   BANK5   BANK6   BANK7   BANK8   BANK9  BANK10  BANK1
      +1  BANK12  BANK13  BANK14  BANK15
  4526 ;;      Params:         3       0       0       0       0       0       0       0       0       0       0       0       
      +0       0       0       0       0
  4527 ;;      Locals:         1       0       0       0       0       0       0       0       0       0       0       0       
      +0       0       0       0       0
  4528 ;;      Temps:          0       0       0       0       0       0       0       0       0       0       0       0       
      +0       0       0       0       0
  4529 ;;      Totals:         4       0       0       0       0       0       0       0       0       0       0       0       
      +0       0       0       0       0
  4530 ;;Total ram usage:        4 bytes
  4531 ;; Hardware stack levels used: 1
  4532 ;; Hardware stack levels required when called: 2
  4533 ;; This function calls:
  4534 ;;		_gpio_pin_write_logic
  4535 ;;		_lcd_4bit_send_enable
  4536 ;;		_lcd_send_4bit
  4537 ;; This function is called by:
  4538 ;;		_lcd_4bit_initialize
  4539 ;;		_lcd_4bit_set_cursor
  4540 ;;		_main
  4541 ;;		_lcd_4bit_send_custome_chr
  4542 ;; This function uses a non-reentrant model
  4543 ;;
  4544                           
  4545                           	psect	text27
  4546   002418                     __ptext27:
  4547                           	callstack 0
  4548   002418                     _lcd_4bit_send_command:
  4549                           	callstack 26
  4550   002418                     
  4551                           ;ECU_layer/Char_lCD/ecu_chr_lcd.c: 69:     if(lcd_obj == ((void*)0))
  4552   002418  5013               	movf	lcd_4bit_send_command@lcd_obj^0,w,c
  4553   00241A  1014               	iorwf	(lcd_4bit_send_command@lcd_obj+1)^0,w,c
  4554   00241C  A4D8               	btfss	status,2,c
  4555   00241E  EF13  F012         	goto	u2321
  4556   002422  EF15  F012         	goto	u2320
  4557   002426                     u2321:
  4558   002426  EF19  F012         	goto	l3064
  4559   00242A                     u2320:
  4560   00242A                     
  4561                           ;ECU_layer/Char_lCD/ecu_chr_lcd.c: 70:     {;ECU_layer/Char_lCD/ecu_chr_lcd.c: 71:      
      +                             ret = (Std_ReturnType)0x00;
  4562   00242A  0E00               	movlw	0
  4563   00242C  6E16               	movwf	lcd_4bit_send_command@ret^0,c
  4564                           
  4565                           ;ECU_layer/Char_lCD/ecu_chr_lcd.c: 72:     }
  4566   00242E  EF45  F012         	goto	l3066
  4567   002432                     l3064:
  4568                           
  4569                           ;ECU_layer/Char_lCD/ecu_chr_lcd.c: 74:     {;ECU_layer/Char_lCD/ecu_chr_lcd.c: 75:      
      +                             ret = gpio_pin_write_logic(&(lcd_obj->lcd_rs),GPIO_LOW);
  4570   002432  0E05               	movlw	5
  4571   002434  2413               	addwf	lcd_4bit_send_command@lcd_obj^0,w,c
  4572   002436  6E01               	movwf	gpio_pin_write_logic@pin^0,c
  4573   002438  0E00               	movlw	0
  4574   00243A  2014               	addwfc	(lcd_4bit_send_command@lcd_obj+1)^0,w,c
  4575   00243C  6E02               	movwf	(gpio_pin_write_logic@pin+1)^0,c
  4576   00243E  0E00               	movlw	0
  4577   002440  6E03               	movwf	gpio_pin_write_logic@log^0,c
  4578   002442  EC80  F00D         	call	_gpio_pin_write_logic	;wreg free
  4579   002446  6E16               	movwf	lcd_4bit_send_command@ret^0,c
  4580                           
  4581                           ;ECU_layer/Char_lCD/ecu_chr_lcd.c: 76:         ret = lcd_send_4bit(lcd_obj,(command>>4))
      +                          ;
  4582   002448  C013  F00B         	movff	lcd_4bit_send_command@lcd_obj,lcd_send_4bit@lcd_obj
  4583   00244C  C014  F00C         	movff	lcd_4bit_send_command@lcd_obj+1,lcd_send_4bit@lcd_obj+1
  4584   002450  3815               	swapf	lcd_4bit_send_command@command^0,w,c
  4585   002452  0B0F               	andlw	15
  4586   002454  6E0D               	movwf	lcd_send_4bit@data_command^0,c
  4587   002456  EC47  F012         	call	_lcd_send_4bit	;wreg free
  4588   00245A  6E16               	movwf	lcd_4bit_send_command@ret^0,c
  4589                           
  4590                           ;ECU_layer/Char_lCD/ecu_chr_lcd.c: 77:         ret = lcd_4bit_send_enable(lcd_obj);
  4591   00245C  C013  F00B         	movff	lcd_4bit_send_command@lcd_obj,lcd_4bit_send_enable@lcd_obj
  4592   002460  C014  F00C         	movff	lcd_4bit_send_command@lcd_obj+1,lcd_4bit_send_enable@lcd_obj+1
  4593   002464  EC6A  F013         	call	_lcd_4bit_send_enable	;wreg free
  4594   002468  6E16               	movwf	lcd_4bit_send_command@ret^0,c
  4595                           
  4596                           ;ECU_layer/Char_lCD/ecu_chr_lcd.c: 78:         ret = lcd_send_4bit(lcd_obj,command);
  4597   00246A  C013  F00B         	movff	lcd_4bit_send_command@lcd_obj,lcd_send_4bit@lcd_obj
  4598   00246E  C014  F00C         	movff	lcd_4bit_send_command@lcd_obj+1,lcd_send_4bit@lcd_obj+1
  4599   002472  C015  F00D         	movff	lcd_4bit_send_command@command,lcd_send_4bit@data_command
  4600   002476  EC47  F012         	call	_lcd_send_4bit	;wreg free
  4601   00247A  6E16               	movwf	lcd_4bit_send_command@ret^0,c
  4602                           
  4603                           ;ECU_layer/Char_lCD/ecu_chr_lcd.c: 79:         ret = lcd_4bit_send_enable(lcd_obj);
  4604   00247C  C013  F00B         	movff	lcd_4bit_send_command@lcd_obj,lcd_4bit_send_enable@lcd_obj
  4605   002480  C014  F00C         	movff	lcd_4bit_send_command@lcd_obj+1,lcd_4bit_send_enable@lcd_obj+1
  4606   002484  EC6A  F013         	call	_lcd_4bit_send_enable	;wreg free
  4607   002488  6E16               	movwf	lcd_4bit_send_command@ret^0,c
  4608   00248A                     l3066:
  4609                           
  4610                           ;ECU_layer/Char_lCD/ecu_chr_lcd.c: 81:     return ret;
  4611   00248A  5016               	movf	lcd_4bit_send_command@ret^0,w,c
  4612   00248C  0012               	return		;funcret
  4613   00248E                     __end_of_lcd_4bit_send_command:
  4614                           	callstack 0
  4615                           
  4616 ;; *************** function _lcd_send_4bit *****************
  4617 ;; Defined at:
  4618 ;;		line 485 in file "ECU_layer/Char_lCD/ecu_chr_lcd.c"
  4619 ;; Parameters:    Size  Location     Type
  4620 ;;  lcd_obj         2   10[COMRAM] PTR const struct .
  4621 ;;		 -> lcd_1(6), 
  4622 ;;  data_command    1   12[COMRAM] unsigned char 
  4623 ;; Auto vars:     Size  Location     Type
  4624 ;;  i               2   16[COMRAM] int 
  4625 ;;  ret             1   15[COMRAM] unsigned char 
  4626 ;; Return value:  Size  Location     Type
  4627 ;;                  1    wreg      unsigned char 
  4628 ;; Registers used:
  4629 ;;		wreg, fsr2l, fsr2h, status,2, status,0, prodl, prodh, cstack
  4630 ;; Tracked objects:
  4631 ;;		On entry : 0/0
  4632 ;;		On exit  : 0/0
  4633 ;;		Unchanged: 0/0
  4634 ;; Data sizes:     COMRAM   BANK0   BANK1   BANK2   BANK3   BANK4   BANK5   BANK6   BANK7   BANK8   BANK9  BANK10  BANK1
      +1  BANK12  BANK13  BANK14  BANK15
  4635 ;;      Params:         3       0       0       0       0       0       0       0       0       0       0       0       
      +0       0       0       0       0
  4636 ;;      Locals:         3       0       0       0       0       0       0       0       0       0       0       0       
      +0       0       0       0       0
  4637 ;;      Temps:          2       0       0       0       0       0       0       0       0       0       0       0       
      +0       0       0       0       0
  4638 ;;      Totals:         8       0       0       0       0       0       0       0       0       0       0       0       
      +0       0       0       0       0
  4639 ;;Total ram usage:        8 bytes
  4640 ;; Hardware stack levels used: 1
  4641 ;; Hardware stack levels required when called: 1
  4642 ;; This function calls:
  4643 ;;		_gpio_pin_write_logic
  4644 ;; This function is called by:
  4645 ;;		_lcd_4bit_send_command
  4646 ;;		_lcd_4bit_send_char
  4647 ;; This function uses a non-reentrant model
  4648 ;;
  4649                           
  4650                           	psect	text28
  4651   00248E                     __ptext28:
  4652                           	callstack 0
  4653   00248E                     _lcd_send_4bit:
  4654                           	callstack 26
  4655   00248E                     
  4656                           ;ECU_layer/Char_lCD/ecu_chr_lcd.c: 488:     if(lcd_obj == ((void*)0))
  4657   00248E  500B               	movf	lcd_send_4bit@lcd_obj^0,w,c
  4658   002490  100C               	iorwf	(lcd_send_4bit@lcd_obj+1)^0,w,c
  4659   002492  A4D8               	btfss	status,2,c
  4660   002494  EF4E  F012         	goto	u2101
  4661   002498  EF50  F012         	goto	u2100
  4662   00249C                     u2101:
  4663   00249C  EF54  F012         	goto	l2940
  4664   0024A0                     u2100:
  4665   0024A0                     
  4666                           ;ECU_layer/Char_lCD/ecu_chr_lcd.c: 489:     {;ECU_layer/Char_lCD/ecu_chr_lcd.c: 490:    
      +                               ret = (Std_ReturnType)0x00;
  4667   0024A0  0E00               	movlw	0
  4668   0024A2  6E10               	movwf	lcd_send_4bit@ret^0,c
  4669                           
  4670                           ;ECU_layer/Char_lCD/ecu_chr_lcd.c: 491:     }
  4671   0024A4  EF80  F012         	goto	l2952
  4672   0024A8                     l2940:
  4673                           
  4674                           ;ECU_layer/Char_lCD/ecu_chr_lcd.c: 493:     {;ECU_layer/Char_lCD/ecu_chr_lcd.c: 494:    
      +                               for(int i=0;i<4;i++)
  4675   0024A8  0E00               	movlw	0
  4676   0024AA  6E12               	movwf	(lcd_send_4bit@i+1)^0,c
  4677   0024AC  0E00               	movlw	0
  4678   0024AE  6E11               	movwf	lcd_send_4bit@i^0,c
  4679   0024B0                     l2946:
  4680                           
  4681                           ;ECU_layer/Char_lCD/ecu_chr_lcd.c: 495:         {;ECU_layer/Char_lCD/ecu_chr_lcd.c: 496:
      +                                       ret = gpio_pin_write_logic(&(lcd_obj->lcd_data[i]),(data_command >> i) & (u
      +                          int8)0x01);
  4682   0024B0  5011               	movf	lcd_send_4bit@i^0,w,c
  4683   0024B2  240B               	addwf	lcd_send_4bit@lcd_obj^0,w,c
  4684   0024B4  6E01               	movwf	gpio_pin_write_logic@pin^0,c
  4685   0024B6  5012               	movf	(lcd_send_4bit@i+1)^0,w,c
  4686   0024B8  200C               	addwfc	(lcd_send_4bit@lcd_obj+1)^0,w,c
  4687   0024BA  6E02               	movwf	(gpio_pin_write_logic@pin+1)^0,c
  4688   0024BC  C011  F00E         	movff	lcd_send_4bit@i,??_lcd_send_4bit
  4689   0024C0  C00D  F00F         	movff	lcd_send_4bit@data_command,??_lcd_send_4bit+1
  4690   0024C4  2A0E               	incf	??_lcd_send_4bit^0,f,c
  4691   0024C6  EF67  F012         	goto	u2114
  4692   0024CA                     u2115:
  4693   0024CA  90D8               	bcf	status,0,c
  4694   0024CC  320F               	rrcf	(??_lcd_send_4bit+1)^0,f,c
  4695   0024CE                     u2114:
  4696   0024CE  2E0E               	decfsz	??_lcd_send_4bit^0,f,c
  4697   0024D0  EF65  F012         	goto	u2115
  4698   0024D4  500F               	movf	(??_lcd_send_4bit+1)^0,w,c
  4699   0024D6  0B01               	andlw	1
  4700   0024D8  6E03               	movwf	gpio_pin_write_logic@log^0,c
  4701   0024DA  EC80  F00D         	call	_gpio_pin_write_logic	;wreg free
  4702   0024DE  6E10               	movwf	lcd_send_4bit@ret^0,c
  4703   0024E0                     
  4704                           ;ECU_layer/Char_lCD/ecu_chr_lcd.c: 497:         }
  4705   0024E0  4A11               	infsnz	lcd_send_4bit@i^0,f,c
  4706   0024E2  2A12               	incf	(lcd_send_4bit@i+1)^0,f,c
  4707   0024E4  BE12               	btfsc	(lcd_send_4bit@i+1)^0,7,c
  4708   0024E6  EF7E  F012         	goto	u2121
  4709   0024EA  5012               	movf	(lcd_send_4bit@i+1)^0,w,c
  4710   0024EC  E109               	bnz	u2120
  4711   0024EE  0E04               	movlw	4
  4712   0024F0  5C11               	subwf	lcd_send_4bit@i^0,w,c
  4713   0024F2  A0D8               	btfss	status,0,c
  4714   0024F4  EF7E  F012         	goto	u2121
  4715   0024F8  EF80  F012         	goto	u2120
  4716   0024FC                     u2121:
  4717   0024FC  EF58  F012         	goto	l2946
  4718   002500                     u2120:
  4719   002500                     l2952:
  4720                           
  4721                           ;ECU_layer/Char_lCD/ecu_chr_lcd.c: 500:     return ret;
  4722   002500  5010               	movf	lcd_send_4bit@ret^0,w,c
  4723   002502  0012               	return		;funcret
  4724   002504                     __end_of_lcd_send_4bit:
  4725                           	callstack 0
  4726                           
  4727 ;; *************** function _lcd_4bit_send_enable *****************
  4728 ;; Defined at:
  4729 ;;		line 503 in file "ECU_layer/Char_lCD/ecu_chr_lcd.c"
  4730 ;; Parameters:    Size  Location     Type
  4731 ;;  lcd_obj         2   10[COMRAM] PTR const struct .
  4732 ;;		 -> lcd_1(6), 
  4733 ;; Auto vars:     Size  Location     Type
  4734 ;;  ret             1   12[COMRAM] unsigned char 
  4735 ;; Return value:  Size  Location     Type
  4736 ;;                  1    wreg      unsigned char 
  4737 ;; Registers used:
  4738 ;;		wreg, fsr2l, fsr2h, status,2, status,0, prodl, prodh, cstack
  4739 ;; Tracked objects:
  4740 ;;		On entry : 0/0
  4741 ;;		On exit  : 0/0
  4742 ;;		Unchanged: 0/0
  4743 ;; Data sizes:     COMRAM   BANK0   BANK1   BANK2   BANK3   BANK4   BANK5   BANK6   BANK7   BANK8   BANK9  BANK10  BANK1
      +1  BANK12  BANK13  BANK14  BANK15
  4744 ;;      Params:         2       0       0       0       0       0       0       0       0       0       0       0       
      +0       0       0       0       0
  4745 ;;      Locals:         1       0       0       0       0       0       0       0       0       0       0       0       
      +0       0       0       0       0
  4746 ;;      Temps:          0       0       0       0       0       0       0       0       0       0       0       0       
      +0       0       0       0       0
  4747 ;;      Totals:         3       0       0       0       0       0       0       0       0       0       0       0       
      +0       0       0       0       0
  4748 ;;Total ram usage:        3 bytes
  4749 ;; Hardware stack levels used: 1
  4750 ;; Hardware stack levels required when called: 1
  4751 ;; This function calls:
  4752 ;;		_gpio_pin_write_logic
  4753 ;; This function is called by:
  4754 ;;		_lcd_4bit_send_command
  4755 ;;		_lcd_4bit_send_char
  4756 ;; This function uses a non-reentrant model
  4757 ;;
  4758                           
  4759                           	psect	text29
  4760   0026D4                     __ptext29:
  4761                           	callstack 0
  4762   0026D4                     _lcd_4bit_send_enable:
  4763                           	callstack 26
  4764   0026D4                     
  4765                           ;ECU_layer/Char_lCD/ecu_chr_lcd.c: 506:     if(lcd_obj == ((void*)0))
  4766   0026D4  500B               	movf	lcd_4bit_send_enable@lcd_obj^0,w,c
  4767   0026D6  100C               	iorwf	(lcd_4bit_send_enable@lcd_obj+1)^0,w,c
  4768   0026D8  A4D8               	btfss	status,2,c
  4769   0026DA  EF71  F013         	goto	u2131
  4770   0026DE  EF73  F013         	goto	u2130
  4771   0026E2                     u2131:
  4772   0026E2  EF77  F013         	goto	l2962
  4773   0026E6                     u2130:
  4774   0026E6                     
  4775                           ;ECU_layer/Char_lCD/ecu_chr_lcd.c: 507:     {;ECU_layer/Char_lCD/ecu_chr_lcd.c: 508:    
      +                               ret = (Std_ReturnType)0x00;
  4776   0026E6  0E00               	movlw	0
  4777   0026E8  6E0D               	movwf	lcd_4bit_send_enable@ret^0,c
  4778                           
  4779                           ;ECU_layer/Char_lCD/ecu_chr_lcd.c: 509:     }
  4780   0026EA  EF8F  F013         	goto	l2966
  4781   0026EE                     l2962:
  4782   0026EE  0E04               	movlw	4
  4783   0026F0  240B               	addwf	lcd_4bit_send_enable@lcd_obj^0,w,c
  4784   0026F2  6E01               	movwf	gpio_pin_write_logic@pin^0,c
  4785   0026F4  0E00               	movlw	0
  4786   0026F6  200C               	addwfc	(lcd_4bit_send_enable@lcd_obj+1)^0,w,c
  4787   0026F8  6E02               	movwf	(gpio_pin_write_logic@pin+1)^0,c
  4788   0026FA  0E01               	movlw	1
  4789   0026FC  6E03               	movwf	gpio_pin_write_logic@log^0,c
  4790   0026FE  EC80  F00D         	call	_gpio_pin_write_logic	;wreg free
  4791   002702                     
  4792                           ;ECU_layer/Char_lCD/ecu_chr_lcd.c: 513:         _delay((unsigned long)((5)*(4000000UL/40
      +                          00000.0)));
  4793   002702  D000               	nop2		;2 cycle nop
  4794   002704  D000               	nop2		;2 cycle nop
  4795   002706  F000               	nop	
  4796                           
  4797                           ;ECU_layer/Char_lCD/ecu_chr_lcd.c: 514:         ret = gpio_pin_write_logic(&(lcd_obj->lc
      +                          d_enable),GPIO_LOW);
  4798   002708  0E04               	movlw	4
  4799   00270A  240B               	addwf	lcd_4bit_send_enable@lcd_obj^0,w,c
  4800   00270C  6E01               	movwf	gpio_pin_write_logic@pin^0,c
  4801   00270E  0E00               	movlw	0
  4802   002710  200C               	addwfc	(lcd_4bit_send_enable@lcd_obj+1)^0,w,c
  4803   002712  6E02               	movwf	(gpio_pin_write_logic@pin+1)^0,c
  4804   002714  0E00               	movlw	0
  4805   002716  6E03               	movwf	gpio_pin_write_logic@log^0,c
  4806   002718  EC80  F00D         	call	_gpio_pin_write_logic	;wreg free
  4807   00271C  6E0D               	movwf	lcd_4bit_send_enable@ret^0,c
  4808   00271E                     l2966:
  4809                           
  4810                           ;ECU_layer/Char_lCD/ecu_chr_lcd.c: 517:     return ret;
  4811   00271E  500D               	movf	lcd_4bit_send_enable@ret^0,w,c
  4812   002720  0012               	return		;funcret
  4813   002722                     __end_of_lcd_4bit_send_enable:
  4814                           	callstack 0
  4815                           
  4816 ;; *************** function _keypad_initialize *****************
  4817 ;; Defined at:
  4818 ;;		line 28 in file "ECU_layer/key_pad/ecu_key_pad.c"
  4819 ;; Parameters:    Size  Location     Type
  4820 ;;  keypad          2   14[COMRAM] PTR const struct .
  4821 ;;		 -> kp1(8), 
  4822 ;; Auto vars:     Size  Location     Type
  4823 ;;  i               1   20[COMRAM] unsigned char 
  4824 ;;  i               1   19[COMRAM] unsigned char 
  4825 ;;  ret             1   18[COMRAM] unsigned char 
  4826 ;; Return value:  Size  Location     Type
  4827 ;;                  1    wreg      unsigned char 
  4828 ;; Registers used:
  4829 ;;		wreg, fsr2l, fsr2h, status,2, status,0, prodl, prodh, cstack
  4830 ;; Tracked objects:
  4831 ;;		On entry : 0/0
  4832 ;;		On exit  : 0/0
  4833 ;;		Unchanged: 0/0
  4834 ;; Data sizes:     COMRAM   BANK0   BANK1   BANK2   BANK3   BANK4   BANK5   BANK6   BANK7   BANK8   BANK9  BANK10  BANK1
      +1  BANK12  BANK13  BANK14  BANK15
  4835 ;;      Params:         2       0       0       0       0       0       0       0       0       0       0       0       
      +0       0       0       0       0
  4836 ;;      Locals:         3       0       0       0       0       0       0       0       0       0       0       0       
      +0       0       0       0       0
  4837 ;;      Temps:          2       0       0       0       0       0       0       0       0       0       0       0       
      +0       0       0       0       0
  4838 ;;      Totals:         7       0       0       0       0       0       0       0       0       0       0       0       
      +0       0       0       0       0
  4839 ;;Total ram usage:        7 bytes
  4840 ;; Hardware stack levels used: 1
  4841 ;; Hardware stack levels required when called: 2
  4842 ;; This function calls:
  4843 ;;		_gpio_pin_direction_initialize
  4844 ;;		_gpio_pin_initialize
  4845 ;; This function is called by:
  4846 ;;		_ecu_initialize
  4847 ;; This function uses a non-reentrant model
  4848 ;;
  4849                           
  4850                           	psect	text30
  4851   00232A                     __ptext30:
  4852                           	callstack 0
  4853   00232A                     _keypad_initialize:
  4854                           	callstack 26
  4855   00232A                     
  4856                           ;ECU_layer/key_pad/ecu_key_pad.c: 31:     if(keypad==((void*)0))
  4857   00232A  500F               	movf	keypad_initialize@keypad^0,w,c
  4858   00232C  1010               	iorwf	(keypad_initialize@keypad+1)^0,w,c
  4859   00232E  A4D8               	btfss	status,2,c
  4860   002330  EF9C  F011         	goto	u2391
  4861   002334  EF9E  F011         	goto	u2390
  4862   002338                     u2391:
  4863   002338  EFA2  F011         	goto	l3164
  4864   00233C                     u2390:
  4865   00233C                     
  4866                           ;ECU_layer/key_pad/ecu_key_pad.c: 32:     {;ECU_layer/key_pad/ecu_key_pad.c: 33:        
      +                           ret = (Std_ReturnType)0x00;
  4867   00233C  0E00               	movlw	0
  4868   00233E  6E13               	movwf	keypad_initialize@ret^0,c
  4869                           
  4870                           ;ECU_layer/key_pad/ecu_key_pad.c: 34:     }
  4871   002340  EFCF  F011         	goto	l3188
  4872   002344                     l3164:
  4873                           
  4874                           ;ECU_layer/key_pad/ecu_key_pad.c: 36:     {;ECU_layer/key_pad/ecu_key_pad.c: 37:        
      +                           for(uint8 i=0;i<4;i++)
  4875   002344  0E00               	movlw	0
  4876   002346  6E14               	movwf	keypad_initialize@i^0,c
  4877   002348                     l3170:
  4878   002348  5014               	movf	keypad_initialize@i^0,w,c
  4879   00234A  240F               	addwf	keypad_initialize@keypad^0,w,c
  4880   00234C  6E0B               	movwf	gpio_pin_initialize@pin^0,c
  4881   00234E  0E00               	movlw	0
  4882   002350  2010               	addwfc	(keypad_initialize@keypad+1)^0,w,c
  4883   002352  6E0C               	movwf	(gpio_pin_initialize@pin+1)^0,c
  4884   002354  EC82  F012         	call	_gpio_pin_initialize	;wreg free
  4885   002358                     
  4886                           ;ECU_layer/key_pad/ecu_key_pad.c: 40:         }
  4887   002358  2A14               	incf	keypad_initialize@i^0,f,c
  4888   00235A  0E03               	movlw	3
  4889   00235C  6414               	cpfsgt	keypad_initialize@i^0,c
  4890   00235E  EFB3  F011         	goto	u2401
  4891   002362  EFB5  F011         	goto	u2400
  4892   002366                     u2401:
  4893   002366  EFA4  F011         	goto	l3170
  4894   00236A                     u2400:
  4895   00236A                     
  4896                           ;ECU_layer/key_pad/ecu_key_pad.c: 41:         for(uint8 i=0;i<4;i++)
  4897   00236A  0E00               	movlw	0
  4898   00236C  6E15               	movwf	keypad_initialize@i_479^0,c
  4899   00236E                     l3182:
  4900                           
  4901                           ;ECU_layer/key_pad/ecu_key_pad.c: 42:         {;ECU_layer/key_pad/ecu_key_pad.c: 43:    
      +                                   ret = gpio_pin_direction_initialize(&(keypad->keypad_coulmns_pins[i]));
  4902   00236E  5015               	movf	keypad_initialize@i_479^0,w,c
  4903   002370  240F               	addwf	keypad_initialize@keypad^0,w,c
  4904   002372  6E11               	movwf	??_keypad_initialize^0,c
  4905   002374  0E00               	movlw	0
  4906   002376  2010               	addwfc	(keypad_initialize@keypad+1)^0,w,c
  4907   002378  6E12               	movwf	(??_keypad_initialize+1)^0,c
  4908   00237A  0E04               	movlw	4
  4909   00237C  2411               	addwf	??_keypad_initialize^0,w,c
  4910   00237E  6E01               	movwf	gpio_pin_direction_initialize@pin^0,c
  4911   002380  0E00               	movlw	0
  4912   002382  2012               	addwfc	(??_keypad_initialize+1)^0,w,c
  4913   002384  6E02               	movwf	(gpio_pin_direction_initialize@pin+1)^0,c
  4914   002386  EC45  F00C         	call	_gpio_pin_direction_initialize	;wreg free
  4915   00238A  6E13               	movwf	keypad_initialize@ret^0,c
  4916   00238C                     
  4917                           ;ECU_layer/key_pad/ecu_key_pad.c: 44:         }
  4918   00238C  2A15               	incf	keypad_initialize@i_479^0,f,c
  4919   00238E  0E03               	movlw	3
  4920   002390  6415               	cpfsgt	keypad_initialize@i_479^0,c
  4921   002392  EFCD  F011         	goto	u2411
  4922   002396  EFCF  F011         	goto	u2410
  4923   00239A                     u2411:
  4924   00239A  EFB7  F011         	goto	l3182
  4925   00239E                     u2410:
  4926   00239E                     l3188:
  4927                           
  4928                           ;ECU_layer/key_pad/ecu_key_pad.c: 47:      return ret;
  4929   00239E  5013               	movf	keypad_initialize@ret^0,w,c
  4930   0023A0  0012               	return		;funcret
  4931   0023A2                     __end_of_keypad_initialize:
  4932                           	callstack 0
  4933                           
  4934 ;; *************** function _gpio_pin_initialize *****************
  4935 ;; Defined at:
  4936 ;;		line 146 in file "MCAL_layer/GPIO/hal_gpio.c"
  4937 ;; Parameters:    Size  Location     Type
  4938 ;;  pin             2   10[COMRAM] PTR const struct .
  4939 ;;		 -> lcd_1.lcd_data(4), lcd_1(6), kp1.keypad_ROWS_pins(4), kp1(8), 
  4940 ;;		 -> led_initialize@pin_obj(1), relay_initialize@relay_pin(1), 
  4941 ;; Auto vars:     Size  Location     Type
  4942 ;;  ret             1   13[COMRAM] unsigned char 
  4943 ;; Return value:  Size  Location     Type
  4944 ;;                  1    wreg      unsigned char 
  4945 ;; Registers used:
  4946 ;;		wreg, fsr2l, fsr2h, status,2, status,0, prodl, prodh, cstack
  4947 ;; Tracked objects:
  4948 ;;		On entry : 0/0
  4949 ;;		On exit  : 0/0
  4950 ;;		Unchanged: 0/0
  4951 ;; Data sizes:     COMRAM   BANK0   BANK1   BANK2   BANK3   BANK4   BANK5   BANK6   BANK7   BANK8   BANK9  BANK10  BANK1
      +1  BANK12  BANK13  BANK14  BANK15
  4952 ;;      Params:         2       0       0       0       0       0       0       0       0       0       0       0       
      +0       0       0       0       0
  4953 ;;      Locals:         1       0       0       0       0       0       0       0       0       0       0       0       
      +0       0       0       0       0
  4954 ;;      Temps:          1       0       0       0       0       0       0       0       0       0       0       0       
      +0       0       0       0       0
  4955 ;;      Totals:         4       0       0       0       0       0       0       0       0       0       0       0       
      +0       0       0       0       0
  4956 ;;Total ram usage:        4 bytes
  4957 ;; Hardware stack levels used: 1
  4958 ;; Hardware stack levels required when called: 1
  4959 ;; This function calls:
  4960 ;;		_gpio_pin_direction_initialize
  4961 ;;		_gpio_pin_write_logic
  4962 ;; This function is called by:
  4963 ;;		_lcd_4bit_initialize
  4964 ;;		_keypad_initialize
  4965 ;;		_lcd_8bit_initialize
  4966 ;;		_dc_motor_initialize
  4967 ;;		_relay_initialize
  4968 ;;		_led_initialize
  4969 ;;		_initialize_seven_segment
  4970 ;; This function uses a non-reentrant model
  4971 ;;
  4972                           
  4973                           	psect	text31
  4974   002504                     __ptext31:
  4975                           	callstack 0
  4976   002504                     _gpio_pin_initialize:
  4977                           	callstack 26
  4978   002504                     
  4979                           ;MCAL_layer/GPIO/hal_gpio.c: 149:     if((pin==((void*)0))||(pin->pin>=8))
  4980   002504  500B               	movf	gpio_pin_initialize@pin^0,w,c
  4981   002506  100C               	iorwf	(gpio_pin_initialize@pin+1)^0,w,c
  4982   002508  B4D8               	btfsc	status,2,c
  4983   00250A  EF89  F012         	goto	u2301
  4984   00250E  EF8B  F012         	goto	u2300
  4985   002512                     u2301:
  4986   002512  EF9C  F012         	goto	l3050
  4987   002516                     u2300:
  4988   002516  C00B  FFD9         	movff	gpio_pin_initialize@pin,fsr2l
  4989   00251A  C00C  FFDA         	movff	gpio_pin_initialize@pin+1,fsr2h
  4990   00251E  30DF               	rrcf	223,w,c
  4991   002520  32E8               	rrcf	wreg,f,c
  4992   002522  32E8               	rrcf	wreg,f,c
  4993   002524  0B07               	andlw	7
  4994   002526  6E0D               	movwf	??_gpio_pin_initialize^0,c
  4995   002528  0E07               	movlw	7
  4996   00252A  640D               	cpfsgt	??_gpio_pin_initialize^0,c
  4997   00252C  EF9A  F012         	goto	u2311
  4998   002530  EF9C  F012         	goto	u2310
  4999   002534                     u2311:
  5000   002534  EFA0  F012         	goto	l3052
  5001   002538                     u2310:
  5002   002538                     l3050:
  5003                           
  5004                           ;MCAL_layer/GPIO/hal_gpio.c: 150:     {;MCAL_layer/GPIO/hal_gpio.c: 151:         ret = (
      +                          Std_ReturnType)0x00;
  5005   002538  0E00               	movlw	0
  5006   00253A  6E0E               	movwf	gpio_pin_initialize@ret^0,c
  5007                           
  5008                           ;MCAL_layer/GPIO/hal_gpio.c: 152:     }
  5009   00253C  EFB6  F012         	goto	l3054
  5010   002540                     l3052:
  5011                           
  5012                           ;MCAL_layer/GPIO/hal_gpio.c: 154:     {;MCAL_layer/GPIO/hal_gpio.c: 155:         ret = g
      +                          pio_pin_direction_initialize(pin);
  5013   002540  C00B  F001         	movff	gpio_pin_initialize@pin,gpio_pin_direction_initialize@pin
  5014   002544  C00C  F002         	movff	gpio_pin_initialize@pin+1,gpio_pin_direction_initialize@pin+1
  5015   002548  EC45  F00C         	call	_gpio_pin_direction_initialize	;wreg free
  5016   00254C  6E0E               	movwf	gpio_pin_initialize@ret^0,c
  5017                           
  5018                           ;MCAL_layer/GPIO/hal_gpio.c: 156:         ret = gpio_pin_write_logic(pin,pin->logic);
  5019   00254E  C00B  F001         	movff	gpio_pin_initialize@pin,gpio_pin_write_logic@pin
  5020   002552  C00C  F002         	movff	gpio_pin_initialize@pin+1,gpio_pin_write_logic@pin+1
  5021   002556  C00B  FFD9         	movff	gpio_pin_initialize@pin,fsr2l
  5022   00255A  C00C  FFDA         	movff	gpio_pin_initialize@pin+1,fsr2h
  5023   00255E  0E00               	movlw	0
  5024   002560  BEDF               	btfsc	indf2,7,c
  5025   002562  0E01               	movlw	1
  5026   002564  6E03               	movwf	gpio_pin_write_logic@log^0,c
  5027   002566  EC80  F00D         	call	_gpio_pin_write_logic	;wreg free
  5028   00256A  6E0E               	movwf	gpio_pin_initialize@ret^0,c
  5029   00256C                     l3054:
  5030                           
  5031                           ;MCAL_layer/GPIO/hal_gpio.c: 158:     return ret;
  5032   00256C  500E               	movf	gpio_pin_initialize@ret^0,w,c
  5033   00256E  0012               	return		;funcret
  5034   002570                     __end_of_gpio_pin_initialize:
  5035                           	callstack 0
  5036                           
  5037 ;; *************** function _gpio_pin_write_logic *****************
  5038 ;; Defined at:
  5039 ;;		line 96 in file "MCAL_layer/GPIO/hal_gpio.c"
  5040 ;; Parameters:    Size  Location     Type
  5041 ;;  pin             2    0[COMRAM] PTR const struct .
  5042 ;;		 -> lcd_1.lcd_data(4), lcd_1(6), kp1.keypad_ROWS_pins(4), kp1(8), 
  5043 ;;		 -> led_turn_off@pin_obj(1), led_turn_on@pin_obj(1), led_initialize@pin_obj(1), relay_turn_off@relay_pin(1), 
  5044 ;;		 -> relay_turn_on@relay_pin(1), relay_initialize@relay_pin(1), 
  5045 ;;  log             1    2[COMRAM] enum E2985
  5046 ;; Auto vars:     Size  Location     Type
  5047 ;;  ret             1    9[COMRAM] unsigned char 
  5048 ;; Return value:  Size  Location     Type
  5049 ;;                  1    wreg      unsigned char 
  5050 ;; Registers used:
  5051 ;;		wreg, fsr2l, fsr2h, status,2, status,0, prodl, prodh
  5052 ;; Tracked objects:
  5053 ;;		On entry : 0/0
  5054 ;;		On exit  : 0/0
  5055 ;;		Unchanged: 0/0
  5056 ;; Data sizes:     COMRAM   BANK0   BANK1   BANK2   BANK3   BANK4   BANK5   BANK6   BANK7   BANK8   BANK9  BANK10  BANK1
      +1  BANK12  BANK13  BANK14  BANK15
  5057 ;;      Params:         3       0       0       0       0       0       0       0       0       0       0       0       
      +0       0       0       0       0
  5058 ;;      Locals:         1       0       0       0       0       0       0       0       0       0       0       0       
      +0       0       0       0       0
  5059 ;;      Temps:          6       0       0       0       0       0       0       0       0       0       0       0       
      +0       0       0       0       0
  5060 ;;      Totals:        10       0       0       0       0       0       0       0       0       0       0       0       
      +0       0       0       0       0
  5061 ;;Total ram usage:       10 bytes
  5062 ;; Hardware stack levels used: 1
  5063 ;; This function calls:
  5064 ;;		Nothing
  5065 ;; This function is called by:
  5066 ;;		_lcd_4bit_send_command
  5067 ;;		_lcd_4bit_send_char
  5068 ;;		_lcd_send_4bit
  5069 ;;		_lcd_4bit_send_enable
  5070 ;;		_keypad_get_value
  5071 ;;		_gpio_pin_initialize
  5072 ;;		_lcd_8bit_send_command
  5073 ;;		_lcd_8bit_send_char
  5074 ;;		_lcd_8bit_send_enable
  5075 ;;		_dc_motor_move_right
  5076 ;;		_dc_motor_move_left
  5077 ;;		_dc_motor_stop
  5078 ;;		_relay_turn_on
  5079 ;;		_relay_turn_off
  5080 ;;		_led_turn_on
  5081 ;;		_led_turn_off
  5082 ;;		_seven_segment_write_number
  5083 ;; This function uses a non-reentrant model
  5084 ;;
  5085                           
  5086                           	psect	text32
  5087   001B00                     __ptext32:
  5088                           	callstack 0
  5089   001B00                     _gpio_pin_write_logic:
  5090                           	callstack 26
  5091   001B00                     
  5092                           ;MCAL_layer/GPIO/hal_gpio.c: 96: Std_ReturnType gpio_pin_write_logic(const pin_config *p
      +                          in,logic_t log);MCAL_layer/GPIO/hal_gpio.c: 97: {;MCAL_layer/GPIO/hal_gpio.c: 98:     St
      +                          d_ReturnType ret = (Std_ReturnType)0x01;
  5093   001B00  0E01               	movlw	1
  5094   001B02  6E0A               	movwf	gpio_pin_write_logic@ret^0,c
  5095   001B04                     
  5096                           ;MCAL_layer/GPIO/hal_gpio.c: 99:     if((pin==((void*)0))||(pin->pin>=8))
  5097   001B04  5001               	movf	gpio_pin_write_logic@pin^0,w,c
  5098   001B06  1002               	iorwf	(gpio_pin_write_logic@pin+1)^0,w,c
  5099   001B08  B4D8               	btfsc	status,2,c
  5100   001B0A  EF89  F00D         	goto	u1911
  5101   001B0E  EF8B  F00D         	goto	u1910
  5102   001B12                     u1911:
  5103   001B12  EF9C  F00D         	goto	l2818
  5104   001B16                     u1910:
  5105   001B16  C001  FFD9         	movff	gpio_pin_write_logic@pin,fsr2l
  5106   001B1A  C002  FFDA         	movff	gpio_pin_write_logic@pin+1,fsr2h
  5107   001B1E  30DF               	rrcf	223,w,c
  5108   001B20  32E8               	rrcf	wreg,f,c
  5109   001B22  32E8               	rrcf	wreg,f,c
  5110   001B24  0B07               	andlw	7
  5111   001B26  6E04               	movwf	??_gpio_pin_write_logic^0,c
  5112   001B28  0E07               	movlw	7
  5113   001B2A  6404               	cpfsgt	??_gpio_pin_write_logic^0,c
  5114   001B2C  EF9A  F00D         	goto	u1921
  5115   001B30  EF9C  F00D         	goto	u1920
  5116   001B34                     u1921:
  5117   001B34  EFFF  F00D         	goto	l2826
  5118   001B38                     u1920:
  5119   001B38                     l2818:
  5120                           
  5121                           ;MCAL_layer/GPIO/hal_gpio.c: 100:     {;MCAL_layer/GPIO/hal_gpio.c: 101:         ret = (
      +                          Std_ReturnType)0x00;
  5122   001B38  0E00               	movlw	0
  5123   001B3A  6E0A               	movwf	gpio_pin_write_logic@ret^0,c
  5124                           
  5125                           ;MCAL_layer/GPIO/hal_gpio.c: 102:     }
  5126   001B3C  EF14  F00E         	goto	l2828
  5127   001B40                     l2820:
  5128                           
  5129                           ;MCAL_layer/GPIO/hal_gpio.c: 108:                 (*lat_registers[pin->port] &= ~((uint8
      +                          )1 << pin->pin));
  5130   001B40  C001  FFD9         	movff	gpio_pin_write_logic@pin,fsr2l
  5131   001B44  C002  FFDA         	movff	gpio_pin_write_logic@pin+1,fsr2h
  5132   001B48  30DF               	rrcf	223,w,c
  5133   001B4A  32E8               	rrcf	wreg,f,c
  5134   001B4C  32E8               	rrcf	wreg,f,c
  5135   001B4E  0B07               	andlw	7
  5136   001B50  6E04               	movwf	??_gpio_pin_write_logic^0,c
  5137   001B52  0E01               	movlw	1
  5138   001B54  6E05               	movwf	(??_gpio_pin_write_logic+1)^0,c
  5139   001B56  2A04               	incf	??_gpio_pin_write_logic^0,f,c
  5140   001B58  EFB0  F00D         	goto	u1934
  5141   001B5C                     u1935:
  5142   001B5C  90D8               	bcf	status,0,c
  5143   001B5E  3605               	rlcf	(??_gpio_pin_write_logic+1)^0,f,c
  5144   001B60                     u1934:
  5145   001B60  2E04               	decfsz	??_gpio_pin_write_logic^0,f,c
  5146   001B62  EFAE  F00D         	goto	u1935
  5147   001B66  5005               	movf	(??_gpio_pin_write_logic+1)^0,w,c
  5148   001B68  0AFF               	xorlw	255
  5149   001B6A  6E06               	movwf	(??_gpio_pin_write_logic+2)^0,c
  5150   001B6C  C001  FFD9         	movff	gpio_pin_write_logic@pin,fsr2l
  5151   001B70  C002  FFDA         	movff	gpio_pin_write_logic@pin+1,fsr2h
  5152   001B74  50DF               	movf	223,w,c
  5153   001B76  0B07               	andlw	7
  5154   001B78  6E07               	movwf	(??_gpio_pin_write_logic+3)^0,c
  5155   001B7A  5007               	movf	(??_gpio_pin_write_logic+3)^0,w,c
  5156   001B7C  0D02               	mullw	2
  5157   001B7E  0ED3               	movlw	low _lat_registers
  5158   001B80  24F3               	addwf	243,w,c
  5159   001B82  6ED9               	movwf	fsr2l,c
  5160   001B84  0E00               	movlw	high _lat_registers
  5161   001B86  20F4               	addwfc	prodh,w,c
  5162   001B88  6EDA               	movwf	fsr2h,c
  5163   001B8A  CFDE F008          	movff	postinc2,??_gpio_pin_write_logic+4
  5164   001B8E  CFDD F009          	movff	postdec2,??_gpio_pin_write_logic+5
  5165   001B92  C008  FFD9         	movff	??_gpio_pin_write_logic+4,fsr2l
  5166   001B96  C009  FFDA         	movff	??_gpio_pin_write_logic+5,fsr2h
  5167   001B9A  5006               	movf	(??_gpio_pin_write_logic+2)^0,w,c
  5168   001B9C  16DF               	andwf	indf2,f,c
  5169                           
  5170                           ;MCAL_layer/GPIO/hal_gpio.c: 109:                 break;
  5171   001B9E  EF14  F00E         	goto	l2828
  5172   001BA2                     l2822:
  5173                           
  5174                           ;MCAL_layer/GPIO/hal_gpio.c: 111:                 (*lat_registers[pin->port] |= ((uint8)
      +                          1 << pin->pin));
  5175   001BA2  C001  FFD9         	movff	gpio_pin_write_logic@pin,fsr2l
  5176   001BA6  C002  FFDA         	movff	gpio_pin_write_logic@pin+1,fsr2h
  5177   001BAA  30DF               	rrcf	223,w,c
  5178   001BAC  32E8               	rrcf	wreg,f,c
  5179   001BAE  32E8               	rrcf	wreg,f,c
  5180   001BB0  0B07               	andlw	7
  5181   001BB2  6E04               	movwf	??_gpio_pin_write_logic^0,c
  5182   001BB4  0E01               	movlw	1
  5183   001BB6  6E05               	movwf	(??_gpio_pin_write_logic+1)^0,c
  5184   001BB8  2A04               	incf	??_gpio_pin_write_logic^0,f,c
  5185   001BBA  EFE1  F00D         	goto	u1944
  5186   001BBE                     u1945:
  5187   001BBE  90D8               	bcf	status,0,c
  5188   001BC0  3605               	rlcf	(??_gpio_pin_write_logic+1)^0,f,c
  5189   001BC2                     u1944:
  5190   001BC2  2E04               	decfsz	??_gpio_pin_write_logic^0,f,c
  5191   001BC4  EFDF  F00D         	goto	u1945
  5192   001BC8  C001  FFD9         	movff	gpio_pin_write_logic@pin,fsr2l
  5193   001BCC  C002  FFDA         	movff	gpio_pin_write_logic@pin+1,fsr2h
  5194   001BD0  50DF               	movf	223,w,c
  5195   001BD2  0B07               	andlw	7
  5196   001BD4  6E06               	movwf	(??_gpio_pin_write_logic+2)^0,c
  5197   001BD6  5006               	movf	(??_gpio_pin_write_logic+2)^0,w,c
  5198   001BD8  0D02               	mullw	2
  5199   001BDA  0ED3               	movlw	low _lat_registers
  5200   001BDC  24F3               	addwf	243,w,c
  5201   001BDE  6ED9               	movwf	fsr2l,c
  5202   001BE0  0E00               	movlw	high _lat_registers
  5203   001BE2  20F4               	addwfc	prodh,w,c
  5204   001BE4  6EDA               	movwf	fsr2h,c
  5205   001BE6  CFDE F007          	movff	postinc2,??_gpio_pin_write_logic+3
  5206   001BEA  CFDD F008          	movff	postdec2,??_gpio_pin_write_logic+4
  5207   001BEE  C007  FFD9         	movff	??_gpio_pin_write_logic+3,fsr2l
  5208   001BF2  C008  FFDA         	movff	??_gpio_pin_write_logic+4,fsr2h
  5209   001BF6  5005               	movf	(??_gpio_pin_write_logic+1)^0,w,c
  5210   001BF8  12DF               	iorwf	indf2,f,c
  5211                           
  5212                           ;MCAL_layer/GPIO/hal_gpio.c: 112:                 break;
  5213   001BFA  EF14  F00E         	goto	l2828
  5214   001BFE                     l2826:
  5215   001BFE  5003               	movf	gpio_pin_write_logic@log^0,w,c
  5216   001C00  6E04               	movwf	??_gpio_pin_write_logic^0,c
  5217   001C02  6A05               	clrf	(??_gpio_pin_write_logic+1)^0,c
  5218                           
  5219                           ; Switch on 2 bytes has been partitioned into a top level switch of size 1, and 1 sub-sw
      +                          itches
  5220                           ; Switch size 1, requested type "simple"
  5221                           ; Number of cases is 1, Range of values is 0 to 0
  5222                           ; switch strategies available:
  5223                           ; Name         Instructions Cycles
  5224                           ; simple_byte            4     3 (average)
  5225                           ;	Chosen strategy is simple_byte
  5226   001C04  5005               	movf	(??_gpio_pin_write_logic+1)^0,w,c
  5227   001C06  0A00               	xorlw	0	; case 0
  5228   001C08  B4D8               	btfsc	status,2,c
  5229   001C0A  EF09  F00E         	goto	l4260
  5230   001C0E  EF9C  F00D         	goto	l2818
  5231   001C12                     l4260:
  5232                           
  5233                           ; Switch size 1, requested type "simple"
  5234                           ; Number of cases is 2, Range of values is 0 to 1
  5235                           ; switch strategies available:
  5236                           ; Name         Instructions Cycles
  5237                           ; simple_byte            7     4 (average)
  5238                           ;	Chosen strategy is simple_byte
  5239   001C12  5004               	movf	??_gpio_pin_write_logic^0,w,c
  5240   001C14  0A00               	xorlw	0	; case 0
  5241   001C16  B4D8               	btfsc	status,2,c
  5242   001C18  EFA0  F00D         	goto	l2820
  5243   001C1C  0A01               	xorlw	1	; case 1
  5244   001C1E  B4D8               	btfsc	status,2,c
  5245   001C20  EFD1  F00D         	goto	l2822
  5246   001C24  EF9C  F00D         	goto	l2818
  5247   001C28                     l2828:
  5248                           
  5249                           ;MCAL_layer/GPIO/hal_gpio.c: 117:      return ret;
  5250   001C28  500A               	movf	gpio_pin_write_logic@ret^0,w,c
  5251   001C2A  0012               	return		;funcret
  5252   001C2C                     __end_of_gpio_pin_write_logic:
  5253                           	callstack 0
  5254                           
  5255 ;; *************** function _gpio_pin_direction_initialize *****************
  5256 ;; Defined at:
  5257 ;;		line 22 in file "MCAL_layer/GPIO/hal_gpio.c"
  5258 ;; Parameters:    Size  Location     Type
  5259 ;;  pin             2    0[COMRAM] PTR const struct .
  5260 ;;		 -> lcd_1.lcd_data(4), lcd_1(6), kp1.keypad_coulmns_pins(4), kp1.keypad_ROWS_pins(4), 
  5261 ;;		 -> kp1(8), led_initialize@pin_obj(1), relay_initialize@relay_pin(1), 
  5262 ;; Auto vars:     Size  Location     Type
  5263 ;;  ret             1    8[COMRAM] unsigned char 
  5264 ;; Return value:  Size  Location     Type
  5265 ;;                  1    wreg      unsigned char 
  5266 ;; Registers used:
  5267 ;;		wreg, fsr2l, fsr2h, status,2, status,0, prodl, prodh
  5268 ;; Tracked objects:
  5269 ;;		On entry : 0/0
  5270 ;;		On exit  : 0/0
  5271 ;;		Unchanged: 0/0
  5272 ;; Data sizes:     COMRAM   BANK0   BANK1   BANK2   BANK3   BANK4   BANK5   BANK6   BANK7   BANK8   BANK9  BANK10  BANK1
      +1  BANK12  BANK13  BANK14  BANK15
  5273 ;;      Params:         2       0       0       0       0       0       0       0       0       0       0       0       
      +0       0       0       0       0
  5274 ;;      Locals:         1       0       0       0       0       0       0       0       0       0       0       0       
      +0       0       0       0       0
  5275 ;;      Temps:          6       0       0       0       0       0       0       0       0       0       0       0       
      +0       0       0       0       0
  5276 ;;      Totals:         9       0       0       0       0       0       0       0       0       0       0       0       
      +0       0       0       0       0
  5277 ;;Total ram usage:        9 bytes
  5278 ;; Hardware stack levels used: 1
  5279 ;; This function calls:
  5280 ;;		Nothing
  5281 ;; This function is called by:
  5282 ;;		_keypad_initialize
  5283 ;;		_gpio_pin_initialize
  5284 ;;		_push_button_initialize
  5285 ;; This function uses a non-reentrant model
  5286 ;;
  5287                           
  5288                           	psect	text33
  5289   00188A                     __ptext33:
  5290                           	callstack 0
  5291   00188A                     _gpio_pin_direction_initialize:
  5292                           	callstack 26
  5293   00188A                     
  5294                           ;MCAL_layer/GPIO/hal_gpio.c: 22: Std_ReturnType gpio_pin_direction_initialize(const pin_
      +                          config *pin);MCAL_layer/GPIO/hal_gpio.c: 23: {;MCAL_layer/GPIO/hal_gpio.c: 24:     Std_R
      +                          eturnType ret = (Std_ReturnType)0x01;
  5295   00188A  0E01               	movlw	1
  5296   00188C  6E09               	movwf	gpio_pin_direction_initialize@ret^0,c
  5297   00188E                     
  5298                           ;MCAL_layer/GPIO/hal_gpio.c: 25:     if((pin==((void*)0))||(pin->pin>=8))
  5299   00188E  5001               	movf	gpio_pin_direction_initialize@pin^0,w,c
  5300   001890  1002               	iorwf	(gpio_pin_direction_initialize@pin+1)^0,w,c
  5301   001892  B4D8               	btfsc	status,2,c
  5302   001894  EF4E  F00C         	goto	u2141
  5303   001898  EF50  F00C         	goto	u2140
  5304   00189C                     u2141:
  5305   00189C  EF61  F00C         	goto	l2976
  5306   0018A0                     u2140:
  5307   0018A0  C001  FFD9         	movff	gpio_pin_direction_initialize@pin,fsr2l
  5308   0018A4  C002  FFDA         	movff	gpio_pin_direction_initialize@pin+1,fsr2h
  5309   0018A8  30DF               	rrcf	223,w,c
  5310   0018AA  32E8               	rrcf	wreg,f,c
  5311   0018AC  32E8               	rrcf	wreg,f,c
  5312   0018AE  0B07               	andlw	7
  5313   0018B0  6E03               	movwf	??_gpio_pin_direction_initialize^0,c
  5314   0018B2  0E07               	movlw	7
  5315   0018B4  6403               	cpfsgt	??_gpio_pin_direction_initialize^0,c
  5316   0018B6  EF5F  F00C         	goto	u2151
  5317   0018BA  EF61  F00C         	goto	u2150
  5318   0018BE                     u2151:
  5319   0018BE  EFC4  F00C         	goto	l2984
  5320   0018C2                     u2150:
  5321   0018C2                     l2976:
  5322                           
  5323                           ;MCAL_layer/GPIO/hal_gpio.c: 26:     {;MCAL_layer/GPIO/hal_gpio.c: 27:         ret = (St
      +                          d_ReturnType)0x00;
  5324   0018C2  0E00               	movlw	0
  5325   0018C4  6E09               	movwf	gpio_pin_direction_initialize@ret^0,c
  5326                           
  5327                           ;MCAL_layer/GPIO/hal_gpio.c: 28:     }
  5328   0018C6  EFE5  F00C         	goto	l2986
  5329   0018CA                     l2978:
  5330                           
  5331                           ;MCAL_layer/GPIO/hal_gpio.c: 34:                 (*tris_registers[pin->port] &= ~((uint8
      +                          )1 << pin->pin));
  5332   0018CA  C001  FFD9         	movff	gpio_pin_direction_initialize@pin,fsr2l
  5333   0018CE  C002  FFDA         	movff	gpio_pin_direction_initialize@pin+1,fsr2h
  5334   0018D2  30DF               	rrcf	223,w,c
  5335   0018D4  32E8               	rrcf	wreg,f,c
  5336   0018D6  32E8               	rrcf	wreg,f,c
  5337   0018D8  0B07               	andlw	7
  5338   0018DA  6E03               	movwf	??_gpio_pin_direction_initialize^0,c
  5339   0018DC  0E01               	movlw	1
  5340   0018DE  6E04               	movwf	(??_gpio_pin_direction_initialize+1)^0,c
  5341   0018E0  2A03               	incf	??_gpio_pin_direction_initialize^0,f,c
  5342   0018E2  EF75  F00C         	goto	u2164
  5343   0018E6                     u2165:
  5344   0018E6  90D8               	bcf	status,0,c
  5345   0018E8  3604               	rlcf	(??_gpio_pin_direction_initialize+1)^0,f,c
  5346   0018EA                     u2164:
  5347   0018EA  2E03               	decfsz	??_gpio_pin_direction_initialize^0,f,c
  5348   0018EC  EF73  F00C         	goto	u2165
  5349   0018F0  5004               	movf	(??_gpio_pin_direction_initialize+1)^0,w,c
  5350   0018F2  0AFF               	xorlw	255
  5351   0018F4  6E05               	movwf	(??_gpio_pin_direction_initialize+2)^0,c
  5352   0018F6  C001  FFD9         	movff	gpio_pin_direction_initialize@pin,fsr2l
  5353   0018FA  C002  FFDA         	movff	gpio_pin_direction_initialize@pin+1,fsr2h
  5354   0018FE  50DF               	movf	223,w,c
  5355   001900  0B07               	andlw	7
  5356   001902  6E06               	movwf	(??_gpio_pin_direction_initialize+3)^0,c
  5357   001904  5006               	movf	(??_gpio_pin_direction_initialize+3)^0,w,c
  5358   001906  0D02               	mullw	2
  5359   001908  0EE7               	movlw	low _tris_registers
  5360   00190A  24F3               	addwf	243,w,c
  5361   00190C  6ED9               	movwf	fsr2l,c
  5362   00190E  0E00               	movlw	high _tris_registers
  5363   001910  20F4               	addwfc	prodh,w,c
  5364   001912  6EDA               	movwf	fsr2h,c
  5365   001914  CFDE F007          	movff	postinc2,??_gpio_pin_direction_initialize+4
  5366   001918  CFDD F008          	movff	postdec2,??_gpio_pin_direction_initialize+5
  5367   00191C  C007  FFD9         	movff	??_gpio_pin_direction_initialize+4,fsr2l
  5368   001920  C008  FFDA         	movff	??_gpio_pin_direction_initialize+5,fsr2h
  5369   001924  5005               	movf	(??_gpio_pin_direction_initialize+2)^0,w,c
  5370   001926  16DF               	andwf	indf2,f,c
  5371                           
  5372                           ;MCAL_layer/GPIO/hal_gpio.c: 35:                 break;
  5373   001928  EFE5  F00C         	goto	l2986
  5374   00192C                     l2980:
  5375                           
  5376                           ;MCAL_layer/GPIO/hal_gpio.c: 37:                 (*tris_registers[pin->port] |= ((uint8)
      +                          1 << pin->pin));
  5377   00192C  C001  FFD9         	movff	gpio_pin_direction_initialize@pin,fsr2l
  5378   001930  C002  FFDA         	movff	gpio_pin_direction_initialize@pin+1,fsr2h
  5379   001934  30DF               	rrcf	223,w,c
  5380   001936  32E8               	rrcf	wreg,f,c
  5381   001938  32E8               	rrcf	wreg,f,c
  5382   00193A  0B07               	andlw	7
  5383   00193C  6E03               	movwf	??_gpio_pin_direction_initialize^0,c
  5384   00193E  0E01               	movlw	1
  5385   001940  6E04               	movwf	(??_gpio_pin_direction_initialize+1)^0,c
  5386   001942  2A03               	incf	??_gpio_pin_direction_initialize^0,f,c
  5387   001944  EFA6  F00C         	goto	u2174
  5388   001948                     u2175:
  5389   001948  90D8               	bcf	status,0,c
  5390   00194A  3604               	rlcf	(??_gpio_pin_direction_initialize+1)^0,f,c
  5391   00194C                     u2174:
  5392   00194C  2E03               	decfsz	??_gpio_pin_direction_initialize^0,f,c
  5393   00194E  EFA4  F00C         	goto	u2175
  5394   001952  C001  FFD9         	movff	gpio_pin_direction_initialize@pin,fsr2l
  5395   001956  C002  FFDA         	movff	gpio_pin_direction_initialize@pin+1,fsr2h
  5396   00195A  50DF               	movf	223,w,c
  5397   00195C  0B07               	andlw	7
  5398   00195E  6E05               	movwf	(??_gpio_pin_direction_initialize+2)^0,c
  5399   001960  5005               	movf	(??_gpio_pin_direction_initialize+2)^0,w,c
  5400   001962  0D02               	mullw	2
  5401   001964  0EE7               	movlw	low _tris_registers
  5402   001966  24F3               	addwf	243,w,c
  5403   001968  6ED9               	movwf	fsr2l,c
  5404   00196A  0E00               	movlw	high _tris_registers
  5405   00196C  20F4               	addwfc	prodh,w,c
  5406   00196E  6EDA               	movwf	fsr2h,c
  5407   001970  CFDE F006          	movff	postinc2,??_gpio_pin_direction_initialize+3
  5408   001974  CFDD F007          	movff	postdec2,??_gpio_pin_direction_initialize+4
  5409   001978  C006  FFD9         	movff	??_gpio_pin_direction_initialize+3,fsr2l
  5410   00197C  C007  FFDA         	movff	??_gpio_pin_direction_initialize+4,fsr2h
  5411   001980  5004               	movf	(??_gpio_pin_direction_initialize+1)^0,w,c
  5412   001982  12DF               	iorwf	indf2,f,c
  5413                           
  5414                           ;MCAL_layer/GPIO/hal_gpio.c: 38:                 break;
  5415   001984  EFE5  F00C         	goto	l2986
  5416   001988                     l2984:
  5417   001988  C001  FFD9         	movff	gpio_pin_direction_initialize@pin,fsr2l
  5418   00198C  C002  FFDA         	movff	gpio_pin_direction_initialize@pin+1,fsr2h
  5419   001990  BCDF               	btfsc	indf2,6,c
  5420   001992  EFCD  F00C         	goto	u2181
  5421   001996  EFD0  F00C         	goto	u2180
  5422   00199A                     u2181:
  5423   00199A  0E01               	movlw	1
  5424   00199C  EFD1  F00C         	goto	u2190
  5425   0019A0                     u2180:
  5426   0019A0  0E00               	movlw	0
  5427   0019A2                     u2190:
  5428   0019A2  6E03               	movwf	??_gpio_pin_direction_initialize^0,c
  5429   0019A4  6A04               	clrf	(??_gpio_pin_direction_initialize+1)^0,c
  5430                           
  5431                           ; Switch on 2 bytes has been partitioned into a top level switch of size 1, and 1 sub-sw
      +                          itches
  5432                           ; Switch size 1, requested type "simple"
  5433                           ; Number of cases is 1, Range of values is 0 to 0
  5434                           ; switch strategies available:
  5435                           ; Name         Instructions Cycles
  5436                           ; simple_byte            4     3 (average)
  5437                           ;	Chosen strategy is simple_byte
  5438   0019A6  5004               	movf	(??_gpio_pin_direction_initialize+1)^0,w,c
  5439   0019A8  0A00               	xorlw	0	; case 0
  5440   0019AA  B4D8               	btfsc	status,2,c
  5441   0019AC  EFDA  F00C         	goto	l4262
  5442   0019B0  EF61  F00C         	goto	l2976
  5443   0019B4                     l4262:
  5444                           
  5445                           ; Switch size 1, requested type "simple"
  5446                           ; Number of cases is 2, Range of values is 0 to 1
  5447                           ; switch strategies available:
  5448                           ; Name         Instructions Cycles
  5449                           ; simple_byte            7     4 (average)
  5450                           ;	Chosen strategy is simple_byte
  5451   0019B4  5003               	movf	??_gpio_pin_direction_initialize^0,w,c
  5452   0019B6  0A00               	xorlw	0	; case 0
  5453   0019B8  B4D8               	btfsc	status,2,c
  5454   0019BA  EF65  F00C         	goto	l2978
  5455   0019BE  0A01               	xorlw	1	; case 1
  5456   0019C0  B4D8               	btfsc	status,2,c
  5457   0019C2  EF96  F00C         	goto	l2980
  5458   0019C6  EF61  F00C         	goto	l2976
  5459   0019CA                     l2986:
  5460                           
  5461                           ;MCAL_layer/GPIO/hal_gpio.c: 43:     return ret;
  5462   0019CA  5009               	movf	gpio_pin_direction_initialize@ret^0,w,c
  5463   0019CC  0012               	return		;funcret
  5464   0019CE                     __end_of_gpio_pin_direction_initialize:
  5465                           	callstack 0
  5466                           
  5467                           	psect	rparam
  5468   000000                     
  5469                           	psect	config
  5470                           
  5471                           ; Padding undefined space
  5472   300000                     	org	3145728
  5473   300000  FF                 	db	255
  5474                           
  5475                           ;Config register CONFIG1H @ 0x300001
  5476                           ;	Oscillator Selection bits
  5477                           ;	OSC = HS, HS oscillator
  5478                           ;	Fail-Safe Clock Monitor Enable bit
  5479                           ;	FCMEN = OFF, Fail-Safe Clock Monitor disabled
  5480                           ;	Internal/External Oscillator Switchover bit
  5481                           ;	IESO = OFF, Oscillator Switchover mode disabled
  5482   300001                     	org	3145729
  5483   300001  02                 	db	2
  5484                           
  5485                           ;Config register CONFIG2L @ 0x300002
  5486                           ;	Power-up Timer Enable bit
  5487                           ;	PWRT = OFF, PWRT disabled
  5488                           ;	Brown-out Reset Enable bits
  5489                           ;	BOREN = OFF, Brown-out Reset disabled in hardware and software
  5490                           ;	Brown Out Reset Voltage bits
  5491                           ;	BORV = 1, 
  5492   300002                     	org	3145730
  5493   300002  09                 	db	9
  5494                           
  5495                           ;Config register CONFIG2H @ 0x300003
  5496                           ;	Watchdog Timer Enable bit
  5497                           ;	WDT = OFF, WDT disabled (control is placed on the SWDTEN bit)
  5498                           ;	Watchdog Timer Postscale Select bits
  5499                           ;	WDTPS = 32768, 1:32768
  5500   300003                     	org	3145731
  5501   300003  1E                 	db	30
  5502                           
  5503                           ; Padding undefined space
  5504   300004                     	org	3145732
  5505   300004  FF                 	db	255
  5506                           
  5507                           ;Config register CONFIG3H @ 0x300005
  5508                           ;	CCP2 MUX bit
  5509                           ;	CCP2MX = PORTC, CCP2 input/output is multiplexed with RC1
  5510                           ;	PORTB A/D Enable bit
  5511                           ;	PBADEN = OFF, PORTB<4:0> pins are configured as digital I/O on Reset
  5512                           ;	Low-Power Timer1 Oscillator Enable bit
  5513                           ;	LPT1OSC = OFF, Timer1 configured for higher power operation
  5514                           ;	MCLR Pin Enable bit
  5515                           ;	MCLRE = ON, MCLR pin enabled; RE3 input pin disabled
  5516   300005                     	org	3145733
  5517   300005  81                 	db	129
  5518                           
  5519                           ;Config register CONFIG4L @ 0x300006
  5520                           ;	Stack Full/Underflow Reset Enable bit
  5521                           ;	STVREN = ON, Stack full/underflow will cause Reset
  5522                           ;	Single-Supply ICSP Enable bit
  5523                           ;	LVP = OFF, Single-Supply ICSP disabled
  5524                           ;	Extended Instruction Set Enable bit
  5525                           ;	XINST = OFF, Instruction set extension and Indexed Addressing mode disabled (Legacy mo
      +                          de)
  5526                           ;	Background Debugger Enable bit
  5527                           ;	DEBUG = 0x1, unprogrammed default
  5528   300006                     	org	3145734
  5529   300006  81                 	db	129
  5530                           
  5531                           ; Padding undefined space
  5532   300007                     	org	3145735
  5533   300007  FF                 	db	255
  5534                           
  5535                           ;Config register CONFIG5L @ 0x300008
  5536                           ;	Code Protection bit
  5537                           ;	CP0 = OFF, Block 0 (000800-003FFFh) not code-protected
  5538                           ;	Code Protection bit
  5539                           ;	CP1 = OFF, Block 1 (004000-007FFFh) not code-protected
  5540                           ;	Code Protection bit
  5541                           ;	CP2 = OFF, Block 2 (008000-00BFFFh) not code-protected
  5542                           ;	Code Protection bit
  5543                           ;	CP3 = OFF, Block 3 (00C000-00FFFFh) not code-protected
  5544   300008                     	org	3145736
  5545   300008  0F                 	db	15
  5546                           
  5547                           ;Config register CONFIG5H @ 0x300009
  5548                           ;	Boot Block Code Protection bit
  5549                           ;	CPB = OFF, Boot block (000000-0007FFh) not code-protected
  5550                           ;	Data EEPROM Code Protection bit
  5551                           ;	CPD = OFF, Data EEPROM not code-protected
  5552   300009                     	org	3145737
  5553   300009  C0                 	db	192
  5554                           
  5555                           ;Config register CONFIG6L @ 0x30000A
  5556                           ;	Write Protection bit
  5557                           ;	WRT0 = OFF, Block 0 (000800-003FFFh) not write-protected
  5558                           ;	Write Protection bit
  5559                           ;	WRT1 = OFF, Block 1 (004000-007FFFh) not write-protected
  5560                           ;	Write Protection bit
  5561                           ;	WRT2 = OFF, Block 2 (008000-00BFFFh) not write-protected
  5562                           ;	Write Protection bit
  5563                           ;	WRT3 = OFF, Block 3 (00C000-00FFFFh) not write-protected
  5564   30000A                     	org	3145738
  5565   30000A  0F                 	db	15
  5566                           
  5567                           ;Config register CONFIG6H @ 0x30000B
  5568                           ;	Configuration Register Write Protection bit
  5569                           ;	WRTC = OFF, Configuration registers (300000-3000FFh) not write-protected
  5570                           ;	Boot Block Write Protection bit
  5571                           ;	WRTB = OFF, Boot Block (000000-0007FFh) not write-protected
  5572                           ;	Data EEPROM Write Protection bit
  5573                           ;	WRTD = OFF, Data EEPROM not write-protected
  5574   30000B                     	org	3145739
  5575   30000B  E0                 	db	224
  5576                           
  5577                           ;Config register CONFIG7L @ 0x30000C
  5578                           ;	Table Read Protection bit
  5579                           ;	EBTR0 = OFF, Block 0 (000800-003FFFh) not protected from table reads executed in other
      +                           blocks
  5580                           ;	Table Read Protection bit
  5581                           ;	EBTR1 = OFF, Block 1 (004000-007FFFh) not protected from table reads executed in other
      +                           blocks
  5582                           ;	Table Read Protection bit
  5583                           ;	EBTR2 = OFF, Block 2 (008000-00BFFFh) not protected from table reads executed in other
      +                           blocks
  5584                           ;	Table Read Protection bit
  5585                           ;	EBTR3 = OFF, Block 3 (00C000-00FFFFh) not protected from table reads executed in other
      +                           blocks
  5586   30000C                     	org	3145740
  5587   30000C  0F                 	db	15
  5588                           
  5589                           ;Config register CONFIG7H @ 0x30000D
  5590                           ;	Boot Block Table Read Protection bit
  5591                           ;	EBTRB = OFF, Boot Block (000000-0007FFh) not protected from table reads executed in ot
      +                          her blocks
  5592   30000D                     	org	3145741
  5593   30000D  40                 	db	64
  5594                           tosu	equ	0xFFF
  5595                           tosh	equ	0xFFE
  5596                           tosl	equ	0xFFD
  5597                           stkptr	equ	0xFFC
  5598                           pclatu	equ	0xFFB
  5599                           pclath	equ	0xFFA
  5600                           pcl	equ	0xFF9
  5601                           tblptru	equ	0xFF8
  5602                           tblptrh	equ	0xFF7
  5603                           tblptrl	equ	0xFF6
  5604                           tablat	equ	0xFF5
  5605                           prodh	equ	0xFF4
  5606                           prodl	equ	0xFF3
  5607                           indf0	equ	0xFEF
  5608                           postinc0	equ	0xFEE
  5609                           postdec0	equ	0xFED
  5610                           preinc0	equ	0xFEC
  5611                           plusw0	equ	0xFEB
  5612                           fsr0h	equ	0xFEA
  5613                           fsr0l	equ	0xFE9
  5614                           wreg	equ	0xFE8
  5615                           indf1	equ	0xFE7
  5616                           postinc1	equ	0xFE6
  5617                           postdec1	equ	0xFE5
  5618                           preinc1	equ	0xFE4
  5619                           plusw1	equ	0xFE3
  5620                           fsr1h	equ	0xFE2
  5621                           fsr1l	equ	0xFE1
  5622                           bsr	equ	0xFE0
  5623                           indf2	equ	0xFDF
  5624                           postinc2	equ	0xFDE
  5625                           postdec2	equ	0xFDD
  5626                           preinc2	equ	0xFDC
  5627                           plusw2	equ	0xFDB
  5628                           fsr2h	equ	0xFDA
  5629                           fsr2l	equ	0xFD9
  5630                           status	equ	0xFD8

Data Sizes:
    Strings     35
    Constant    16
    Data        45
    BSS         105
    Persistent  1
    Stack       0

Auto Spaces:
    Space          Size  Autos    Used
    COMRAM          127     89     127
    BANK0           128      0     113
    BANK1           256      0       0
    BANK2           256      0       0
    BANK3           256      0       0
    BANK4           256      0       0
    BANK5           256      0       0
    BANK6           256      0       0
    BANK7           256      0       0
    BANK8           256      0       0
    BANK9           256      0       0
    BANK10          256      0       0
    BANK11          256      0       0
    BANK12          256      0       0
    BANK13          256      0       0
    BANK14          256      0       0
    BANK15          128      0       0

Pointer List with Targets:

    fputs@s	PTR const unsigned char  size(2) Largest target is 32
		 -> dbuf(BANK0[32]), 

    fputs@fp	PTR struct _IO_FILE size(2) Largest target is 12
		 -> sprintf@f(COMRAM[12]), 

    fputc@fp...source	PTR const unsigned char  size(2) Largest target is 0

    fputc@fp...buffer	PTR unsigned char  size(2) Largest target is 0

    fputc@fp	PTR struct _IO_FILE size(2) Largest target is 12
		 -> sprintf@f(COMRAM[12]), 

    vfprintf@ap	PTR PTR void  size(2) Largest target is 2
		 -> sprintf@ap(COMRAM[2]), 

    vfprintf@fp	PTR struct _IO_FILE size(2) Largest target is 12
		 -> sprintf@f(COMRAM[12]), 

    vfprintf@fmt	PTR const unsigned char  size(2) Largest target is 3
		 -> STR_3(CODE[3]), STR_2(CODE[3]), STR_1(CODE[3]), 

    vfprintf@cfmt	PTR unsigned char  size(2) Largest target is 3
		 -> STR_3(CODE[3]), STR_2(CODE[3]), STR_1(CODE[3]), 

    vfpfcnvrt@fp	PTR struct _IO_FILE size(2) Largest target is 12
		 -> sprintf@f(COMRAM[12]), 

    vfpfcnvrt@ap	PTR PTR void  size(2) Largest target is 2
		 -> sprintf@ap(COMRAM[2]), 

    vfpfcnvrt@cp	PTR unsigned char  size(2) Largest target is 3
		 -> STR_3(CODE[3]), STR_2(CODE[3]), STR_1(CODE[3]), 

    vfpfcnvrt@fmt	PTR PTR unsigned char  size(2) Largest target is 2
		 -> vfprintf@cfmt(COMRAM[2]), 

    S1397$vp	PTR void  size(2) Largest target is 0

    convarg.vp	PTR void  size(2) Largest target is 0

    dtoa@fp	PTR struct _IO_FILE size(2) Largest target is 12
		 -> sprintf@f(COMRAM[12]), 

    pad@buf	PTR unsigned char  size(2) Largest target is 32
		 -> dbuf(BANK0[32]), 

    pad@fp	PTR struct _IO_FILE size(2) Largest target is 12
		 -> sprintf@f(COMRAM[12]), 

    sprintf@fmt	PTR const unsigned char  size(2) Largest target is 3
		 -> STR_3(CODE[3]), STR_2(CODE[3]), STR_1(CODE[3]), 

    sprintf@s	PTR unsigned char  size(2) Largest target is 11
		 -> a(BANK0[11]), 

    sprintf@ap	PTR void [1] size(2) Largest target is 2
		 -> ?_sprintf(COMRAM[2]), 

    S1344$source	PTR const unsigned char  size(2) Largest target is 0

    f...source	PTR const unsigned char  size(2) Largest target is 0

    S1344$buffer	PTR unsigned char  size(2) Largest target is 0

    f...buffer	PTR unsigned char  size(2) Largest target is 0

    memset@dest	PTR void  size(2) Largest target is 20
		 -> a(BANK0[11]), num2(BANK0[20]), num1(BANK0[20]), 

    memset@s	PTR unsigned char  size(2) Largest target is 20
		 -> a(BANK0[11]), num2(BANK0[20]), num1(BANK0[20]), 

    atoi@s	PTR const unsigned char  size(2) Largest target is 20
		 -> num2(BANK0[20]), num1(BANK0[20]), 

    gpio_pin_initialize@pin	PTR const struct . size(2) Largest target is 8
		 -> lcd_1.lcd_data(COMRAM[4]), lcd_1(COMRAM[6]), kp1.keypad_ROWS_pins(COMRAM[4]), kp1(COMRAM[8]), 
		 -> led_initialize@pin_obj(COMRAM[1]), relay_initialize@relay_pin(COMRAM[1]), 

    gpio_pin_write_logic@pin	PTR const struct . size(2) Largest target is 8
		 -> lcd_1.lcd_data(COMRAM[4]), lcd_1(COMRAM[6]), kp1.keypad_ROWS_pins(COMRAM[4]), kp1(COMRAM[8]), 
		 -> led_turn_off@pin_obj(COMRAM[1]), led_turn_on@pin_obj(COMRAM[1]), led_initialize@pin_obj(COMRAM[1]), relay_turn_off@relay_pin(COMRAM[1]), 
		 -> relay_turn_on@relay_pin(COMRAM[1]), relay_initialize@relay_pin(COMRAM[1]), 

    gpio_pin_read_logic@log	PTR enum E2985 size(2) Largest target is 1
		 -> push_button_read@btn_l(COMRAM[1]), keypad_get_value@log(COMRAM[1]), 

    gpio_pin_read_logic@pin	PTR const struct . size(2) Largest target is 8
		 -> kp1.keypad_coulmns_pins(COMRAM[4]), kp1(COMRAM[8]), 

    gpio_pin_direction_initialize@pin	PTR const struct . size(2) Largest target is 8
		 -> lcd_1.lcd_data(COMRAM[4]), lcd_1(COMRAM[6]), kp1.keypad_coulmns_pins(COMRAM[4]), kp1.keypad_ROWS_pins(COMRAM[4]), 
		 -> kp1(COMRAM[8]), led_initialize@pin_obj(COMRAM[1]), relay_initialize@relay_pin(COMRAM[1]), 

    lat_registers	PTR volatile unsigned char [5] size(2) Largest target is 1
		 -> LATE(BITBIGSFRlh[1]), LATD(BITBIGSFRlh[1]), LATC(BITBIGSFRlh[1]), LATB(BITBIGSFRlh[1]), 
		 -> LATA(BITBIGSFRll[1]), 

    port_registers	PTR volatile unsigned char [5] size(2) Largest target is 1
		 -> PORTE(BITBIGSFRll[1]), PORTD(BITBIGSFRll[1]), PORTC(BITBIGSFRll[1]), PORTB(BITBIGSFRll[1]), 
		 -> PORTA(BITBIGSFRll[1]), 

    tris_registers	PTR volatile unsigned char [5] size(2) Largest target is 1
		 -> TRISE(BITBIGSFRh[1]), TRISD(BITBIGSFRh[1]), TRISC(BITBIGSFRh[1]), TRISB(BITBIGSFRh[1]), 
		 -> TRISA(BITBIGSFRll[1]), 

    keypad_get_value@value	PTR unsigned char  size(2) Largest target is 1
		 -> keypad_value(COMRAM[1]), 

    keypad_get_value@keypad	PTR const struct . size(2) Largest target is 8
		 -> kp1(COMRAM[8]), 

    keypad_initialize@keypad	PTR const struct . size(2) Largest target is 8
		 -> kp1(COMRAM[8]), 

    lcd_4bit_set_cursor@lcd_obj	PTR const struct . size(2) Largest target is 6
		 -> lcd_1(COMRAM[6]), 

    lcd_4bit_send_enable@lcd_obj	PTR const struct . size(2) Largest target is 6
		 -> lcd_1(COMRAM[6]), 

    lcd_send_4bit@lcd_obj	PTR const struct . size(2) Largest target is 6
		 -> lcd_1(COMRAM[6]), 

    convert_int_to_string@str	PTR unsigned char  size(2) Largest target is 11
		 -> a(BANK0[11]), 

    sp__memset	PTR void  size(2) Largest target is 20
		 -> a(BANK0[11]), num2(BANK0[20]), num1(BANK0[20]), 

    lcd_4bit_send_string_pos@string	PTR unsigned char  size(2) Largest target is 19
		 -> STR_5(CODE[13]), STR_4(CODE[19]), 

    lcd_4bit_send_string_pos@lcd_obj	PTR const struct . size(2) Largest target is 6
		 -> lcd_1(COMRAM[6]), 

    lcd_4bit_send_string@string	PTR unsigned char  size(2) Largest target is 19
		 -> STR_5(CODE[13]), STR_4(CODE[19]), a(BANK0[11]), 

    lcd_4bit_send_string@lcd_obj	PTR const struct . size(2) Largest target is 6
		 -> lcd_1(COMRAM[6]), 

    lcd_4bit_send_char@lcd_obj	PTR const struct . size(2) Largest target is 6
		 -> lcd_1(COMRAM[6]), 

    lcd_4bit_send_command@lcd_obj	PTR const struct . size(2) Largest target is 6
		 -> lcd_1(COMRAM[6]), 

    lcd_4bit_initialize@lcd_obj	PTR const struct . size(2) Largest target is 6
		 -> lcd_1(COMRAM[6]), 


Critical Paths under _main in COMRAM

    _main->_convert_int_to_string
    _lcd_4bit_send_string_pos->_lcd_4bit_set_cursor
    _lcd_4bit_set_cursor->_lcd_4bit_send_command
    _lcd_4bit_send_string->_lcd_4bit_send_char
    _lcd_4bit_send_char->_lcd_send_4bit
    _keypad_get_value->_gpio_pin_read_logic
    _keypad_get_value->_gpio_pin_write_logic
    _convert_int_to_string->_sprintf
    _sprintf->_vfprintf
    _vfprintf->_vfpfcnvrt
    _vfpfcnvrt->_dtoa
    _dtoa->_pad
    _pad->_fputs
    _fputs->_fputc
    _abs->___awmod
    _atoi->___wmul
    _ecu_initialize->_lcd_4bit_initialize
    _lcd_4bit_initialize->_lcd_4bit_send_command
    _lcd_4bit_send_command->_lcd_send_4bit
    _lcd_send_4bit->_gpio_pin_write_logic
    _lcd_4bit_send_enable->_gpio_pin_write_logic
    _keypad_initialize->_gpio_pin_initialize
    _gpio_pin_initialize->_gpio_pin_write_logic

Critical Paths under _main in BANK0

    None.

Critical Paths under _main in BANK1

    None.

Critical Paths under _main in BANK2

    None.

Critical Paths under _main in BANK3

    None.

Critical Paths under _main in BANK4

    None.

Critical Paths under _main in BANK5

    None.

Critical Paths under _main in BANK6

    None.

Critical Paths under _main in BANK7

    None.

Critical Paths under _main in BANK8

    None.

Critical Paths under _main in BANK9

    None.

Critical Paths under _main in BANK10

    None.

Critical Paths under _main in BANK11

    None.

Critical Paths under _main in BANK12

    None.

Critical Paths under _main in BANK13

    None.

Critical Paths under _main in BANK14

    None.

Critical Paths under _main in BANK15

    None.

Call Graph Tables:

 ---------------------------------------------------------------------------------
 (Depth) Function   	        Calls       Base Space   Used Autos Params    Refs
 ---------------------------------------------------------------------------------
 (0) _main                                                 2     2      0  133235
                                             87 COMRAM     2     2      0
                            ___awdiv
                             ___wmul
             _application_initialize
                               _atoi
              _convert_int_to_string
                   _keypad_get_value
                 _lcd_4bit_send_char
              _lcd_4bit_send_command
               _lcd_4bit_send_string
           _lcd_4bit_send_string_pos
                             _memset
 ---------------------------------------------------------------------------------
 (1) _lcd_4bit_send_string_pos                             7     1      6   34515
                                             29 COMRAM     7     1      6
               _lcd_4bit_send_string
                _lcd_4bit_set_cursor
 ---------------------------------------------------------------------------------
 (2) _lcd_4bit_set_cursor                                  7     3      4   17832
                                             22 COMRAM     7     3      4
              _lcd_4bit_send_command
 ---------------------------------------------------------------------------------
 (2) _lcd_4bit_send_string                                 5     1      4   15895
                                             22 COMRAM     5     1      4
                 _lcd_4bit_send_char
 ---------------------------------------------------------------------------------
 (3) _lcd_4bit_send_char                                   4     1      3   15455
                                             18 COMRAM     4     1      3
               _gpio_pin_write_logic
               _lcd_4bit_send_enable
                      _lcd_send_4bit
 ---------------------------------------------------------------------------------
 (1) _keypad_get_value                                    11     7      4    5504
                                             10 COMRAM    11     7      4
                _gpio_pin_read_logic
               _gpio_pin_write_logic
 ---------------------------------------------------------------------------------
 (2) _gpio_pin_read_logic                                 10     6      4     460
                                              0 COMRAM    10     6      4
 ---------------------------------------------------------------------------------
 (1) _convert_int_to_string                                5     1      4    8582
                                             82 COMRAM     5     1      4
                             _memset
                            _sprintf
 ---------------------------------------------------------------------------------
 (2) _sprintf                                             22    16      6    6003
                                             62 COMRAM    20    14      6
                           _vfprintf
 ---------------------------------------------------------------------------------
 (3) _vfprintf                                             8     2      6    5348
                                             54 COMRAM     8     2      6
                          _vfpfcnvrt
 ---------------------------------------------------------------------------------
 (4) _vfpfcnvrt                                           19    13      6    4998
                                             40 COMRAM    14     8      6
                               _dtoa
                              _fputc
 ---------------------------------------------------------------------------------
 (5) _dtoa                                                13     9      4    3778
                                             27 COMRAM    13     9      4
                            ___awdiv
                            ___awmod
                                _abs
                                _pad
 ---------------------------------------------------------------------------------
 (6) _pad                                                 11     5      6    1999
                                             16 COMRAM    11     5      6
                              _fputc
                              _fputs
 ---------------------------------------------------------------------------------
 (7) _fputs                                                7     3      4     931
                                              9 COMRAM     7     3      4
                              _fputc
 ---------------------------------------------------------------------------------
 (5) _fputc                                                9     5      4     682
                                              0 COMRAM     9     5      4
                              _putch
 ---------------------------------------------------------------------------------
 (6) _putch                                                1     1      0       0
 ---------------------------------------------------------------------------------
 (6) _abs                                                  4     2      2     142
                                              6 COMRAM     4     2      2
                            ___awmod (ARG)
 ---------------------------------------------------------------------------------
 (6) ___awmod                                              6     2      4     448
                                              0 COMRAM     6     2      4
 ---------------------------------------------------------------------------------
 (6) ___awdiv                                              8     4      4     604
                                              0 COMRAM     8     4      4
 ---------------------------------------------------------------------------------
 (1) _memset                                              12     6      6    2315
                                              0 COMRAM    12     6      6
 ---------------------------------------------------------------------------------
 (1) _atoi                                                 9     7      2    1732
                                              6 COMRAM     9     7      2
                             ___wmul
                            _isdigit
                            _isspace
 ---------------------------------------------------------------------------------
 (2) _isspace                                              5     3      2     207
                                              0 COMRAM     5     3      2
 ---------------------------------------------------------------------------------
 (2) _isdigit                                              4     2      2     161
                                              0 COMRAM     4     2      2
 ---------------------------------------------------------------------------------
 (2) ___wmul                                               6     2      4     963
                                              0 COMRAM     6     2      4
 ---------------------------------------------------------------------------------
 (1) _application_initialize                               0     0      0   30543
                     _ecu_initialize
 ---------------------------------------------------------------------------------
 (2) _ecu_initialize                                       1     1      0   30543
                  _keypad_initialize
                _lcd_4bit_initialize
 ---------------------------------------------------------------------------------
 (3) _lcd_4bit_initialize                                  6     4      2   23711
                                             22 COMRAM     6     4      2
                _gpio_pin_initialize
              _lcd_4bit_send_command
 ---------------------------------------------------------------------------------
 (3) _lcd_4bit_send_command                                4     1      3   17127
                                             18 COMRAM     4     1      3
               _gpio_pin_write_logic
               _lcd_4bit_send_enable
                      _lcd_send_4bit
 ---------------------------------------------------------------------------------
 (4) _lcd_send_4bit                                        8     5      3    5224
                                             10 COMRAM     8     5      3
               _gpio_pin_write_logic
 ---------------------------------------------------------------------------------
 (4) _lcd_4bit_send_enable                                 3     1      2    4831
                                             10 COMRAM     3     1      2
               _gpio_pin_write_logic
 ---------------------------------------------------------------------------------
 (3) _keypad_initialize                                    7     5      2    6829
                                             14 COMRAM     7     5      2
      _gpio_pin_direction_initialize
                _gpio_pin_initialize
 ---------------------------------------------------------------------------------
 (4) _gpio_pin_initialize                                  4     2      2    6118
                                             10 COMRAM     4     2      2
      _gpio_pin_direction_initialize
               _gpio_pin_write_logic
 ---------------------------------------------------------------------------------
 (5) _gpio_pin_write_logic                                10     7      3    4435
                                              0 COMRAM    10     7      3
 ---------------------------------------------------------------------------------
 (5) _gpio_pin_direction_initialize                        9     7      2     407
                                              0 COMRAM     9     7      2
 ---------------------------------------------------------------------------------
 Estimated maximum stack depth 7
 ---------------------------------------------------------------------------------

 Call Graph Graphs:

 _main (ROOT)
   ___awdiv
   ___wmul
   _application_initialize
     _ecu_initialize
       _keypad_initialize
         _gpio_pin_direction_initialize
         _gpio_pin_initialize
           _gpio_pin_direction_initialize
           _gpio_pin_write_logic
       _lcd_4bit_initialize
         _gpio_pin_initialize
         _lcd_4bit_send_command
           _gpio_pin_write_logic
           _lcd_4bit_send_enable
             _gpio_pin_write_logic
           _lcd_send_4bit
             _gpio_pin_write_logic
   _atoi
     ___wmul
     _isdigit
     _isspace
   _convert_int_to_string
     _memset
     _sprintf
       _vfprintf
         _vfpfcnvrt
           _dtoa
             ___awdiv
             ___awmod
             _abs
               ___awmod (ARG)
             _pad
               _fputc
                 _putch
               _fputs
                 _fputc
           _fputc
   _keypad_get_value
     _gpio_pin_read_logic
     _gpio_pin_write_logic
   _lcd_4bit_send_char
     _gpio_pin_write_logic
     _lcd_4bit_send_enable
     _lcd_send_4bit
   _lcd_4bit_send_command
   _lcd_4bit_send_string
     _lcd_4bit_send_char
   _lcd_4bit_send_string_pos
     _lcd_4bit_send_string
     _lcd_4bit_set_cursor
       _lcd_4bit_send_command
   _memset

 Address spaces:
Name               Size   Autos  Total    Cost      Usage
BIGRAM             F7F      0       0      40        0.0%
EEDATA             400      0       0       0        0.0%
BITBANK14          100      0       0      32        0.0%
BANK14             100      0       0      33        0.0%
BITBANK13          100      0       0      30        0.0%
BANK13             100      0       0      31        0.0%
BITBANK12          100      0       0      28        0.0%
BANK12             100      0       0      29        0.0%
BITBANK11          100      0       0      26        0.0%
BANK11             100      0       0      27        0.0%
BITBANK10          100      0       0      24        0.0%
BANK10             100      0       0      25        0.0%
BITBANK9           100      0       0      22        0.0%
BANK9              100      0       0      23        0.0%
BITBANK8           100      0       0      20        0.0%
BANK8              100      0       0      21        0.0%
BITBANK7           100      0       0      18        0.0%
BANK7              100      0       0      19        0.0%
BITBANK6           100      0       0      16        0.0%
BANK6              100      0       0      17        0.0%
BITBANK5           100      0       0      14        0.0%
BANK5              100      0       0      15        0.0%
BITBANK4           100      0       0      12        0.0%
BANK4              100      0       0      13        0.0%
BITBANK3           100      0       0      10        0.0%
BANK3              100      0       0      11        0.0%
BITBANK2           100      0       0       8        0.0%
BANK2              100      0       0       9        0.0%
BITBANK1           100      0       0       6        0.0%
BANK1              100      0       0       7        0.0%
BITBANK15           80      0       0      34        0.0%
BANK15              80      0       0      35        0.0%
BITBANK0            80      0       0       4        0.0%
BANK0               80      0      71       5       88.3%
BITCOMRAM           7F      0       0       0        0.0%
COMRAM              7F     59      7F       1      100.0%
BITBIGSFRh          69      0       0      36        0.0%
BITBIGSFRlh          4      0       0      37        0.0%
BITBIGSFRll          4      0       0      38        0.0%
BIGSFR               0      0       0     200        0.0%
BITSFR               0      0       0     200        0.0%
SFR                  0      0       0     200        0.0%
STACK                0      0       0       2        0.0%
NULL                 0      0       0       0        0.0%
ABS                  0      0      F0      39        0.0%
DATA                 0      0      F0       3        0.0%
CODE                 0      0       0       0        0.0%


Microchip Technology PIC18 Macro Assembler V2.41 build 20230208172133 
Symbol Table                                                                                   Tue Aug 15 13:24:42 2023

                       ?_lcd_send_4bit 000B                                      _a 00C8  
                                    _l 0066                                     l31 1AFE  
                                   l41 2416                                     l36 248C  
                                   l63 262A                                     l56 22AE  
                         ___awdiv@sign 0006                    ___wmul@multiplicand 0003  
                                  l142 2502                                    l135 2684  
                                  l147 2720                                    l412 19CC  
                                  l261 23A0                                    l176 20AA  
                                  l426 2162                                    l275 1E5A  
                                  l452 256E                                    l364 28C0  
                                  l541 1434                                    l438 1C2A  
                                  l800 1FE8                                    l537 115C  
                                  l813 2212                                    l566 28D6  
                                  l569 2888                   keypad_initialize@ret 0013  
                                  _abs 27F8                                    _kp1 0071  
                                  _pad 22B0                                    _res 0062  
                                  _ret 007F                           ___awmod@sign 0006  
                  led_initialize@F3049 006A                                    prod 0FF3  
                relay_initialize@F3045 006E                                    wreg 0FE8  
                 _lcd_4bit_send_enable 26D4                                   ?_abs 0007  
                                 l3000 1468                                   l1322 2328  
                                 l3010 14B8                                   l1330 14D0  
                                 l3002 1476                                   l3100 19CE  
                                 l3020 14E8                                   l3012 14C4  
                                 l3004 1492                                   l1341 15CE  
                                 l3102 19CE                                   l1262 1880  
                                 l1318 22D2                                   l3030 155C  
                                 l3022 151A                                   l3014 14CC  
                                 l3006 14A2                                   l1327 1482  
                                 l3120 1A44                                   l3104 19E0  
                                 l3040 15AE                                   l3032 156E  
                                 l3024 1520                                   l3016 14D8  
                                 l3008 14A8                                   l1265 1888  
                                 l1361 2836                                   l1329 148A  
                                 l3050 2538                                   l3130 1A9A  
                                 l3122 1A54                                   l3114 1A14  
                                 l3106 19E8                                   l3034 1588  
                                 l3026 1526                                   l3018 14E2  
                                 l1354 26D2                                   l3210 200E  
                                 l3202 1FEA                                   l1283 1744  
                                 l3052 2540                                   l3044 2504  
                                 l3060 2418                                   l3140 1AEA  
                                 l3132 1AAA                                   l3124 1A64  
                                 l3116 1A24                                   l3108 1A0C  
                                 l1268 2862                                   l1276 27B2  
                                 l3036 1598                                   l3028 1542  
                                 l1348 1D4C                                   l3212 2026  
                                 l3220 20A8                                   l3204 1FEE  
                                 l4100 11E0                                   l1373 1F24  
                                 l1381 27F6                                   l3054 256C  
                                 l3046 2504                                   l3062 242A  
                                 l3134 1ABA                                   l3126 1A84  
                                 l3118 1A28                                   l3142 1AFC  
                                 l3310 171C                                   l3302 16A2  
                                 l1358 282E                                   l3038 159E  
                                 l3070 1C2C                                   l3150 23B4  
                                 l3230 2218                                   l3214 203E  
                                 l3206 2000                                   l4110 1218  
                                 l4102 11F2                                   l3048 2516  
                                 l3160 232A                                   l3064 2432  
                                 l3136 1ACA                                   l3128 1A8A  
                                 l3312 1728                                   l3304 16CE  
                                 l1384 28D8                                   l3080 1C7E  
                                 l3072 1C50                                   l1296 276C  
                                 l3320 2732                                   l3152 23BC  
                                 l3240 227A                                   l3232 222A  
                                 l3216 2056                                   l3208 2008  
                                 l4120 126C                                   l4112 121C  
                                 l4104 1204                                   l3170 2348  
                                 l3162 233C                                   l3066 248A  
                                 l3058 2418                                   l3138 1ADA  
                                 l3314 172E                                   l3090 1D12  
                                 l3082 1C9A                                   l3074 1C5E  
                                 l3322 273A                                   l3330 20AC  
                                 l3154 2414                                   l3146 23A2  
                                 l3242 22AC                                   l3234 223C  
                                 l3218 206E                                   l4130 12C4  
                                 l4122 127E                                   l4114 1220  
                                 l4106 1208                                   l3172 2358  
                                 l3164 2344                                   l3316 1732  
                                 l3308 16E8                                   l3084 1CB6  
                                 l3076 1C6A                                   l3324 2742  
                                 l3340 20FE                                   l3332 20B0  
                                 l3500 1DCC                                   l3148 23A2  
                                 l3236 2244                                   l3228 2214  
                                 l4140 1310                                   l4132 12D6  
                                 l4124 128E                                   l4116 123C  
                                 l4108 1210                                   l4060 1050  
                                 l3182 236E                                   l3174 235A  
                                 l3158 232A                                   l3350 28B4  
                                 l3086 1CFA                                   l3078 1C6E  
                                 l3094 1D24                                   l3326 275E  
                                 l3318 2722                                   l3342 2160  
                                 l3334 20C2                                   l3510 1E06  
                                 l3238 2276                                   l4150 136A  
                                 l4142 1322                                   l4134 12E8  
                                 l4126 12A0                                   l4118 125C  
                                 l4070 10D6                                   l4062 1068  
                                 l3184 238C                                   l3176 236A  
                                 l3352 2864                                   l3360 2772  
                                 l2800 1EDE                                   l3192 2686  
                                 l3336 20E4                                   l3512 1E34  
                                 l3520 1E58                                   l4160 13A6  
                                 l4152 137A                                   l4144 1334  
                                 l4136 12F8                                   l4128 12B2  
                                 l4080 113C                                   l4072 10E8  
                                 l4064 107A                                   l4056 1036  
                                 l3186 238E                                   l3346 28A8  
                                 l3354 2880                                   l3370 2838  
                                 l3362 2786                                   l3290 15EE  
                                 l2810 27D6                                   l3194 2692  
                                 l3338 20F6                                   l3514 1E36  
                                 l3506 1DD0                                   l4170 13EC  
                                 l4162 13AE                                   l4146 1346  
                                 l4154 1382                                   l4138 1300  
                                 l4090 1174                                   l4074 10F8  
                                 l4082 115C                                   l4066 10B4  
                                 l4058 103A                                   l4260 1C12  
                                 l2820 1B40                                   l2812 1B00  
                                 l3188 239E                                   l3348 28A8  
                                 l3524 28D2                                   l3364 27A8  
                                 l3540 17BA                                   l3532 175E  
                                 l3292 15FA                                   l2900 21C8  
                                 l2804 27B4                                   l3196 26AE  
                                 l3460 2630                                   l3516 1E46  
                                 l3508 1DF6                                   l4172 1400  
                                 l4156 1392                                   l4164 13B6  
                                 l4148 1358                                   l4092 118A  
                                 l4084 1164                                   l4076 110A  
                                 l4068 10C6                                   l4262 19B4  
                                 l2822 1BA2                                   l2814 1B04  
                                 l3366 27AC                                   l3358 276E  
                                 l3550 1852                                   l3542 17EC  
                                 l3534 1778                                   l3526 1746  
                                 l3286 15D0                                   l2910 2202  
                                 l2902 21DE                                   l2806 27C0  
                                 l3198 26CA                                   l3462 2642  
                                 l3518 1E48                                   l3390 25E4  
                                 l4174 1412                                   l4158 1396  
                                 l4166 13D4                                   l4094 11A0  
                                 l4086 116C                                   l4078 112A  
                                 l2816 1B16                                   l3552 1864  
                                 l3536 17AA                                   l3528 175A  
                                 l3296 1630                                   l2840 1F38  
                                 l2912 220A                                   l2904 21E6  
                                 l2808 27D2                                   l2920 22CA  
                                 l3464 264A                                   l3480 1D8A  
                                 l3472 1D4E                                   l4256 2082  
                                 l3392 25F6                                   l4168 13D8  
                                 l4096 11BC                                   l4088 1170  
                                 l2826 1BFE                                   l2818 1B38  
                                 l4258 17D6                                   l3538 17B2  
                                 l3298 1688                                   l2850 1F5E  
                                 l2842 1F40                                   l2906 21EC  
                                 l2930 27F8                                   l2922 22DE  
                                 l3466 2666                                   l3458 262C  
                                 l3474 1D5E                                   l3394 25FE  
                                 l3386 25D2                                   l4098 11D8  
                                 l2828 1C28                                   l2940 24A8  
                                 l3548 1824                                   l2860 1F96  
                                 l2852 1F66                                   l2844 1F44  
                                 l2836 1F26                                   l2908 21F2  
                                 l2932 2812                                   l2924 22F2  
                                 l2916 22B0                                   l3468 2682  
                                 l3492 1D92                                   l3476 1D70  
                                 l3396 2612                                   l3388 25D2  
                                 l2950 24E4                                   l2934 248E  
                                 l2870 1FC2                                   l2862 1F9C  
                                 l2854 1F78                                   l2846 1F52  
                                 l2838 1F2A                                   l2790 1E5C  
                                 l2926 22F6                                   l2918 22BE  
                                 l3494 1DA6                                   l3486 1D8E  
                                 l3478 1D82                                   l3398 2628  
                                 ?_pad 0011                                   l2960 26E6  
                                 l2952 2500                                   l2936 248E  
                                 l2864 1FB2                                   l2856 1F80  
                                 l2872 1FC8                                   l2848 1F5A  
                                 l2880 2164                                   l2792 1E6E  
                                 l2928 2314                                   l3496 1DA8  
                                 l2970 188A                                   l2962 26EE  
                                 l2946 24B0                                   l2938 24A0  
                                 l2874 1FD8                                   l2866 1FBA  
                                 l2858 1F88                                   l2890 2190  
                                 l2882 2168                                   l2794 1E80  
                                 l3498 1DB8                                   l2980 192C  
                                 l2972 188E                                   l2964 2702  
                                 l2956 26D4                                   l2948 24E0  
                                 l2876 1FE0                                   l2868 1FBC  
                                 l2892 2198                                   l2884 2176  
                                 l2796 1E8A                                   l2974 18A0  
                                 l2966 271E                                   l2958 26D4  
                                 l2894 21AA                                   l2886 217E  
                                 l2798 1EA8                                   l2984 1988  
                                 l2976 18C2                                   l2896 21B2  
                                 l2888 2182                                   l2978 18CA  
                                 l2986 19CA                                   l2898 21BA  
                                 l2994 143C                                   l2996 1450  
                                 l2998 1460                                   STR_1 1031  
                                 STR_3 1031                                   STR_4 1011  
                                 STR_5 1024                                   u2000 1FD8  
                                 u2001 1FD4                                   u2010 2176  
                                 u2011 2172                                   u2100 24A0  
                                 u2020 2190                                   u2101 249C  
                                 u2021 218C                                   u2030 21AA  
                                 u2031 21A6                                   u2120 2500  
                                 u2040 21C8                                   u2200 144C  
                                 u2121 24FC                                   u2041 21C4  
                                 u2201 1446                                   u2130 26E6  
                                 u2114 24CE                                   u2050 21DE  
                                 u2210 144E                                   u2131 26E2  
                                 u2115 24CA                                   u2051 21DA  
                                 u2140 18A0                                   u2300 2516  
                                 u2060 2202                                   u2220 1460  
                                 u2141 189C                                   u2301 2512  
                                 u2061 21FE                                   u2221 145C  
                                 _LATA 0F89                                   u2150 18C2  
                                 u2310 2538                                   u2070 22BE  
                                 u2230 1476                                   _LATB 0F8A  
                                 u2151 18BE                                   u2311 2534  
                                 u2071 22BA                                   u2231 1472  
                                 _LATC 0F8B                                   u2400 236A  
                                 u2320 242A                                   u2080 2314  
                                 u2240 14A2                                   _LATD 0F8C  
                                 u2401 2366                                   u2321 2426  
                                 u2081 2310                                   u2241 149E  
                                 _LATE 0F8D                                   u2410 239E  
                                 u2090 2812                                   u2250 14B8  
                                 u2330 1C50                                   u2411 239A  
                                 u2091 280E                                   u2251 14B4  
                                 u2331 1C4C                                   u2180 19A0  
                                 u2164 18EA                                   u2260 155C  
                                 u2340 1C9A                                   u2420 26CA  
                                 u2181 199A                                   u2165 18E6  
                                 u2261 1558                                   u2341 1C96  
                                 u2421 26C6                                   u2190 19A2  
                                 u2174 194C                                   u2270 156E  
                                 u2350 1CB6                                   u2430 2000  
                                 u2175 1948                                   u2271 156A  
                                 u2351 1CB2                                   u2431 1FFC  
                                 u2360 19E0                                   u2280 1588  
                                 u2600 20F6                                   u2440 222A  
                                 u2361 19DC                                   u2281 1584  
                                 u2601 20F2                                   u2441 2226  
                                 u2370 1A44                                   u2530 15EA  
                                 u2290 1598                                   u2450 223C  
                                 u2371 1A40                                   u2531 15E6  
                                 u2291 1594                                   u2451 2238  
                                 u2620 2786                                   u2540 162C  
                                 u1900 27F6                                   u2380 23B4  
                                 u2460 226E                                   u3500 10E8  
                                 u2621 2782                                   u2541 1628  
                                 u1901 27F2                                   u2381 23B0  
                                 u3501 10E4                                   u1910 1B16  
                                 u2390 233C                                   u2630 27A8  
                                 u2550 169E                                   u2614 214C  
                                 u2470 229C                                   u3510 110A  
                                 u1911 1B12                                   u2391 2338  
                                 u2631 27A4                                   u2551 169A  
                                 u2615 2148                                   u3511 1106  
                                 u1920 1B38                                   u2640 285C  
                                 u2560 16E4                                   u2800 1E06  
                                 u2480 22AC                                   u3600 12E8  
                                 u3520 113C                                   u1921 1B34  
                                 u2641 2856                                   u2561 16E0  
                                 u2801 1E02                                   u2481 22A8  
                                 u3601 12E4                                   u3521 1138  
                                 u2650 285E                                   u2570 1744  
                                 u2810 1E46                                   u3610 1310  
                                 u3530 11F2                                   u2571 1740  
                                 u2811 1E42                                   u2467 2264  
                                 u3611 130C                                   u3531 11EE  
                                 u1860 1E6E                                   u2580 20C2  
                                 u2820 1E58                                   u3700 1400  
                                 u3620 1322                                   u3540 126C  
                                 u1861 1E6A                                   u2581 20BE  
                                 u2821 1E54                                   u2477 2292  
                                 u3701 13FC                                   u3621 131E  
                                 u3541 1268                                   u1934 1B60  
                                 u2830 1778                                   u1950 1F38  
                                 u1870 1E80                                   u2590 20E4  
                                 u2670 25E4                                   u3630 1334  
                                 u3550 128E                                   u1935 1B5C  
                                 u2831 1774                                   u1951 1F34  
                                 u1871 1E7C                                   u2591 20E0  
                                 u2671 25E0                                   u3631 1330  
                                 u3551 128A                                   u1944 1BC2  
                                 u2840 17A6                                   u1960 1F52  
                                 u1880 1EA8                                   u2760 2642  
                                 u2680 25F6                                   u3640 1346  
                                 u3560 12A0                                   u3480 107A  
                                 u1945 1BBE                                   u2841 17A2  
                                 u1961 1F4E                                   u1881 1EA4  
                                 u2761 263E                                   u2681 25F2  
                                 u3641 1342                                   u3561 129C  
                                 u3481 1076                                   u2850 1852  
                                 u1970 1F78                                   u1890 1EDE  
                                 u2770 1D70                                   u3650 1358  
                                 u3570 12B2                                   u3490 10C6  
                                 u2851 184E                                   u1971 1F74  
                                 u1891 1EDA                                   u2771 1D6C  
                                 u3651 1354                                   u3571 12AE  
                                 u3491 10C2                                   u2860 1864  
                                 u1980 1F96                                   u2780 1D82  
                                 u3660 136A                                   u3580 12C4  
                                 u2861 1860                                   u1981 1F92  
                                 u2781 1D7E                                   u3661 1366  
                                 u3581 12C0                                   u3717 105A  
                                 u1990 1FB2                                   u2790 1DB8  
                                 u3670 1392                                   u3590 12D6  
                                 u3727 1A4A                                   u1991 1FAE  
                                 u2791 1DB4                                   u3671 138E  
                                 u3591 12D2                                   u3680 13A6  
                                 u3737 1A6A                                   u3681 13A2  
                                 u3690 13EC                                   u3747 1A86  
                                 u3691 13E8                   _lcd_4bit_send_string 2214  
                                 abs@a 0007                                   _dbuf 0080  
                                 _atoi 1746                                   _main 1036  
                                 _dtoa 143C                                   _num1 00B4  
                                 _num2 00A0                                   _prec 005C  
                                 pad@i 0018                                   pad@p 0015  
                                 fsr0h 0FEA                                   fsr1h 0FE2  
                                 indf0 0FEF                                   fsr2h 0FDA  
                                 fsr0l 0FE9                                   indf2 0FDF  
                                 fsr1l 0FE1                                   pad@w 001A  
                                 fsr2l 0FD9                                   prodh 0FF4  
                                 prodl 0FF3                                   start 0000  
                         ___param_bank 0000                  _lcd_4bit_send_command 2418  
                                ??_abs 0009                   _gpio_pin_write_logic 1B00  
       lcd_4bit_send_string_pos@column 0021                                  ??_pad 0017  
               keypad_get_value@keypad 000B                                  ?_atoi 0007  
       lcd_4bit_send_string_pos@string 0022                                  ?_main 0001  
                                ?_dtoa 001C               ??_application_initialize 001D  
                      __end_of___awdiv 1FEA                        __end_of___awmod 2214  
                      ___awdiv@divisor 0003                        ___awdiv@counter 0005  
                  relay_turn_off@F3055 006C                           vfpfcnvrt@fmt 002B  
               keypad_initialize@i_479 0015                                  _PORTA 0F80  
                                _PORTB 0F81                                  _PORTC 0F82  
                                _PORTD 0F83                                  _PORTE 0F84  
                                _TRISA 0F92                                  _TRISB 0F93  
                                _TRISC 0F94                                  _TRISD 0F95  
                                _TRISE 0F96              lcd_4bit_set_cursor@column 001A  
                ?_lcd_4bit_send_enable 000B               __end_of_keypad_get_value 1E5C  
                                _lcd_1 0079                                  _led_1 0070  
                                _flags 0064                                  _fputc 1E5C  
                                _fputs 27B4                        __end_of_isdigit 2864  
                                atoi@n 000E                                  pad@fp 0011  
                                atoi@s 0007                                  _width 005A  
                                _putch 28D8                                  dtoa@d 001E  
                                dtoa@i 0026                                  dtoa@p 0022  
                                dtoa@s 0028                                  dtoa@w 0024  
                ?_lcd_4bit_send_string 0017                        __end_of_isspace 27B4  
                                tablat 0FF5                lcd_4bit_send_enable@ret 000D  
                                status 0FD8                        __end_of_sprintf 276E  
       ?_gpio_pin_direction_initialize 0001                        ??_lcd_send_4bit 000E  
                      __initialization 2570                    keypad_get_value@log 0012  
                  keypad_get_value@ret 0011                           __end_of_atoi 188A  
                         __end_of_main 143C                           __end_of_dtoa 15D0  
                ?_gpio_pin_write_logic 0001                          _lat_registers 00D3  
      lcd_4bit_send_string_pos@lcd_obj 001E                keypad_get_value@counter 0013  
                               ??_atoi 0009                                 ??_main 0058  
                               ??_dtoa 0020                          __activetblptr 0002  
                     led_turn_on@F3054 0069                                 ?_fputc 0001  
                               ?_fputs 000A                       ___awdiv@dividend 0001  
                               ?_putch 0001       __end_of_lcd_4bit_send_string_pos 262C  
               ?_lcd_4bit_send_command 0013                           vfprintf@cfmt 003D  
              keypad_initialize@keypad 000F            keypad_get_value@row_counter 0014  
                               ___wmul 2864                              ??___awdiv 0005  
                            ??___awmod 0005                                 _memset 15D0  
                               clear_0 25B6                                 clear_1 25C2  
                     ___awdiv@quotient 0007                        ___awmod@divisor 0003  
                               isa$std 0001                        ___awmod@counter 0005  
                               pad@buf 0013                       lcd_send_4bit@ret 0010  
                               dtoa@fp 001C                                 fputc@c 0001  
                               fputs@c 000E                                 fputs@i 000F  
                         __pdataCOMRAM 0070                 ??_lcd_4bit_send_enable 000D  
                               fputs@s 000A                              ??_isdigit 0003  
                         __mediumconst 0000                              ??_isspace 0003  
                               tblptrh 0FF7                                 tblptrl 0FF6  
                               tblptru 0FF8                                 putch@c 0001  
                     __end_of_vfprintf 26D4                 ??_lcd_4bit_send_string 001B  
                            ??_sprintf 0045             lcd_4bit_send_string@string 0019  
              ??_convert_int_to_string 0057                             __accesstop 0080  
              __end_of__initialization 25C8                          ___rparam_used 0001  
               ??_gpio_pin_write_logic 0004                         __pcstackCOMRAM 0001  
                lcd_4bit_send_char@chr 0015                  lcd_4bit_send_char@ret 0016  
                         __pidataBANK0 288A                          __end_of_fputc 1F26  
                        __end_of_fputs 27F8                          __end_of_putch 28DA  
             lcd_4bit_send_command@ret 0016                         lcd_send_4bit@i 0011  
                              ??_fputc 0005                                ??_fputs 000E  
              lcd_4bit_send_string@ret 001B                                ??_putch 0001  
                           __pbssBANK0 0080                 _application_initialize 28D2  
                           __pnvCOMRAM 007F                                ?___wmul 0001  
                    led_turn_off@F3059 0068                        led_toggle@F3064 0067  
                              ?_memset 0001              ?_lcd_4bit_send_string_pos 001E  
                    ?_keypad_get_value 000B                     ??_keypad_get_value 000F  
                           _btn_values 1001                         _tris_registers 00E7  
                              __Hparam 0000                                __Lparam 0000  
                  _gpio_pin_initialize 2504                    _gpio_pin_read_logic 20AC  
                              ___awdiv 1F26                                ___awmod 2164  
                            ?_vfprintf 0037                           __psmallconst 1000  
                              __pcinit 2570                                __ramtop 1000  
                              __ptext0 1036                                __ptext1 25D2  
                              __ptext2 1FEA                                __ptext3 2214  
                              __ptext4 23A2                                __ptext5 1D4E  
                              __ptext6 20AC                                __ptext7 262C  
                              __ptext8 2722                                __ptext9 2686  
      ??_gpio_pin_direction_initialize 0003                                _isdigit 2838  
                     ___awmod@dividend 0001                                _isspace 276E  
                              atoi@neg 000C                   ?_gpio_pin_initialize 000B  
                 ?_gpio_pin_read_logic 0001                                _sprintf 2722  
          lcd_4bit_send_enable@lcd_obj 000B                   end_of_initialization 25C8  
                              fputc@fp 0003                                memset@c 0003  
                              memset@k 0009                                memset@n 0005  
                              memset@s 000B                          __Lmediumconst 0000  
                              fputs@fp 000C                ??_lcd_4bit_send_command 0016  
          lcd_4bit_send_string@lcd_obj 0017             __end_of_lcd_4bit_send_char 2418  
                    __end_of_vfpfcnvrt 1D4E                  __end_of_lcd_send_4bit 2504  
                              postdec1 0FE5                                postdec2 0FDD  
                              postinc0 0FEE                                postinc1 0FE6  
                              postinc2 0FDE                       vfpfcnvrt@convarg 0031  
                           ??_vfprintf 003D                    _lcd_4bit_initialize 19CE  
                 lcd_send_4bit@lcd_obj 000B                         _ecu_initialize 28A8  
                 lcd_4bit_initialize@i 001A                  ??_gpio_pin_initialize 000D  
                ??_gpio_pin_read_logic 0005                   ?_lcd_4bit_initialize 0017  
        __end_of_convert_int_to_string 2686                    _lcd_4bit_set_cursor 1FEA  
                   relay_turn_on@F3050 006D                      relay_toggle@F3060 006B  
          lcd_4bit_send_string_pos@ret 0024            lcd_4bit_send_string_pos@row 0020  
                keypad_get_value@value 000D                            vfpfcnvrt@ap 002D  
                          vfpfcnvrt@cp 0035                            vfpfcnvrt@fp 0029  
                       __end_of___wmul 288A                 __end_of_ecu_initialize 28C2  
                        __pidataCOMRAM 28C2                         __end_of_memset 1746  
                  start_initialization 2570                   ?_lcd_4bit_set_cursor 0017  
                          __end_of_abs 2838                            __end_of_pad 232A  
__end_of_gpio_pin_direction_initialize 19CE          _gpio_pin_direction_initialize 188A  
              ?_application_initialize 0001                  ??_lcd_4bit_initialize 0019  
                          vfprintf@fmt 0039                               ??___wmul 0005  
                          __pdataBANK0 00D3                               ??_memset 0007  
                      ?_ecu_initialize 0001                             memset@dest 0001  
         lcd_4bit_send_command@lcd_obj 0013           lcd_4bit_send_command@command 0015  
           convert_int_to_string@value 0053                            __pbssCOMRAM 005A  
                ??_lcd_4bit_set_cursor 001B         __end_of_application_initialize 28D8  
                            _dtoa$1424 0020                               ?___awdiv 0001  
                             ?___awmod 0001                           _keypad_value 006F  
                          __smallconst 1000                           _num1_counter 0060  
                             ?_isdigit 0001                           _num2_counter 005E  
                             ?_isspace 0001                               ?_sprintf 003F  
       keypad_get_value@coulmn_counter 0015             lcd_4bit_initialize@lcd_obj 0017  
                       ___wmul@product 0005          __end_of_lcd_4bit_send_command 248E  
                            _operatoin 0065       gpio_pin_direction_initialize@pin 0001  
     gpio_pin_direction_initialize@ret 0009                              _vfpfcnvrt 1C2C  
             _lcd_4bit_send_string_pos 25D2                      ___wmul@multiplier 0001  
                   keypad_initialize@i 0014                     _lcd_4bit_send_char 23A2  
               gpio_pin_initialize@pin 000B                 gpio_pin_initialize@ret 000E  
                         _isspace$1333 0005                gpio_pin_write_logic@log 0003  
              gpio_pin_write_logic@pin 0001                gpio_pin_write_logic@ret 000A  
                  ?_lcd_4bit_send_char 0013                              copy_data0 2584  
                            copy_data1 25A4                      _keypad_initialize 232A  
           lcd_4bit_set_cursor@lcd_obj 0017                     ?_keypad_initialize 000F  
               gpio_pin_read_logic@log 0003                 gpio_pin_read_logic@pin 0001  
               gpio_pin_read_logic@ret 000A                               __Hrparam 0000  
                           vfprintf@ap 003B                               __Lrparam 0000  
                           vfprintf@fp 0037                    ??_keypad_initialize 0011  
                 ??_lcd_4bit_send_char 0016                 lcd_4bit_set_cursor@ret 001D  
                           ?_vfpfcnvrt 0029                 lcd_4bit_set_cursor@row 0019  
          __end_of_gpio_pin_initialize 2570                     __end_of_btn_values 1011  
          __end_of_gpio_pin_read_logic 2164                             sprintf@fmt 0041  
            __end_of_keypad_initialize 23A2                               __ptext10 1C2C  
                             __ptext11 143C                               __ptext20 1746  
                             __ptext12 22B0                               __ptext21 276E  
                             __ptext13 27B4                               __ptext30 232A  
                             __ptext22 2838                               __ptext14 1E5C  
                             __ptext31 2504                               __ptext23 2864  
                             __ptext15 28D8                               __ptext32 1B00  
                             __ptext24 28D2                               __ptext16 27F8  
                             __ptext33 188A                               __ptext25 28A8  
                             __ptext17 2164                               __ptext26 19CE  
                             __ptext18 1F26                               __ptext27 2418  
                             __ptext19 15D0                               __ptext28 248E  
                             __ptext29 26D4           __end_of_lcd_4bit_send_enable 2722  
                _convert_int_to_string 262C              lcd_send_4bit@data_command 000D  
                     _keypad_get_value 1D4E                       ??_ecu_initialize 001D  
                             isa$xinst 0000           __end_of_lcd_4bit_send_string 22B0  
                             _vfprintf 2686              lcd_4bit_send_char@lcd_obj 0013  
          __end_of_lcd_4bit_initialize 1B00                               isdigit@c 0001  
         __end_of_gpio_pin_write_logic 1C2C                              sprintf@ap 0045  
                             isspace@c 0001                          _lcd_send_4bit 248E  
                          ??_vfpfcnvrt 002F            __end_of_lcd_4bit_set_cursor 20AC  
                             sprintf@f 0047                               sprintf@s 003F  
                       _port_registers 00DD               convert_int_to_string@ret 0057  
             convert_int_to_string@str 0055                 ?_convert_int_to_string 0053  
           ??_lcd_4bit_send_string_pos 0024                 lcd_4bit_initialize@ret 001C  
